
byggern2.elf:     file format elf32-avr

Sections:
Idx Name          Size      VMA       LMA       File off  Algn
  0 .data         0000024c  00800100  0000144e  000014e2  2**0
                  CONTENTS, ALLOC, LOAD, DATA
  1 .text         0000144e  00000000  00000000  00000094  2**1
                  CONTENTS, ALLOC, LOAD, READONLY, CODE
  2 .bss          0000000a  0080034c  0080034c  0000172e  2**0
                  ALLOC
  3 .comment      0000005c  00000000  00000000  0000172e  2**0
                  CONTENTS, READONLY
  4 .note.gnu.avr.deviceinfo 0000003c  00000000  00000000  0000178c  2**2
                  CONTENTS, READONLY
  5 .debug_aranges 000002b8  00000000  00000000  000017c8  2**0
                  CONTENTS, READONLY, DEBUGGING
  6 .debug_info   0000289b  00000000  00000000  00001a80  2**0
                  CONTENTS, READONLY, DEBUGGING
  7 .debug_abbrev 0000131d  00000000  00000000  0000431b  2**0
                  CONTENTS, READONLY, DEBUGGING
  8 .debug_line   000016fb  00000000  00000000  00005638  2**0
                  CONTENTS, READONLY, DEBUGGING
  9 .debug_frame  0000070c  00000000  00000000  00006d34  2**2
                  CONTENTS, READONLY, DEBUGGING
 10 .debug_str    00000a00  00000000  00000000  00007440  2**0
                  CONTENTS, READONLY, DEBUGGING
 11 .debug_loc    000013f9  00000000  00000000  00007e40  2**0
                  CONTENTS, READONLY, DEBUGGING
 12 .debug_ranges 00000268  00000000  00000000  00009239  2**0
                  CONTENTS, READONLY, DEBUGGING

Disassembly of section .text:

00000000 <__vectors>:
       0:	0c 94 b4 01 	jmp	0x368	; 0x368 <__ctors_end>
       4:	0c 94 d1 01 	jmp	0x3a2	; 0x3a2 <__bad_interrupt>
       8:	0c 94 d1 01 	jmp	0x3a2	; 0x3a2 <__bad_interrupt>
       c:	0c 94 d1 01 	jmp	0x3a2	; 0x3a2 <__bad_interrupt>
      10:	0c 94 d1 01 	jmp	0x3a2	; 0x3a2 <__bad_interrupt>
      14:	0c 94 d1 01 	jmp	0x3a2	; 0x3a2 <__bad_interrupt>
      18:	0c 94 d1 01 	jmp	0x3a2	; 0x3a2 <__bad_interrupt>
      1c:	0c 94 d1 01 	jmp	0x3a2	; 0x3a2 <__bad_interrupt>
      20:	0c 94 d1 01 	jmp	0x3a2	; 0x3a2 <__bad_interrupt>
      24:	0c 94 d1 01 	jmp	0x3a2	; 0x3a2 <__bad_interrupt>
      28:	0c 94 d1 01 	jmp	0x3a2	; 0x3a2 <__bad_interrupt>
      2c:	0c 94 d1 01 	jmp	0x3a2	; 0x3a2 <__bad_interrupt>
      30:	0c 94 d1 01 	jmp	0x3a2	; 0x3a2 <__bad_interrupt>
      34:	0c 94 d1 01 	jmp	0x3a2	; 0x3a2 <__bad_interrupt>
      38:	0c 94 d1 01 	jmp	0x3a2	; 0x3a2 <__bad_interrupt>
      3c:	0c 94 d1 01 	jmp	0x3a2	; 0x3a2 <__bad_interrupt>
      40:	0c 94 d1 01 	jmp	0x3a2	; 0x3a2 <__bad_interrupt>
      44:	0c 94 d1 01 	jmp	0x3a2	; 0x3a2 <__bad_interrupt>
      48:	0c 94 d1 01 	jmp	0x3a2	; 0x3a2 <__bad_interrupt>
      4c:	0c 94 d1 01 	jmp	0x3a2	; 0x3a2 <__bad_interrupt>
      50:	0c 94 d1 01 	jmp	0x3a2	; 0x3a2 <__bad_interrupt>
      54:	0c 94 d1 01 	jmp	0x3a2	; 0x3a2 <__bad_interrupt>
      58:	0c 94 d1 01 	jmp	0x3a2	; 0x3a2 <__bad_interrupt>
      5c:	0c 94 d1 01 	jmp	0x3a2	; 0x3a2 <__bad_interrupt>
      60:	0c 94 d1 01 	jmp	0x3a2	; 0x3a2 <__bad_interrupt>
      64:	0c 94 d1 01 	jmp	0x3a2	; 0x3a2 <__bad_interrupt>
      68:	0c 94 d1 01 	jmp	0x3a2	; 0x3a2 <__bad_interrupt>
      6c:	0c 94 d1 01 	jmp	0x3a2	; 0x3a2 <__bad_interrupt>

00000070 <__trampolines_end>:
	...
      78:	00 06       	cpc	r0, r16
      7a:	5f 5f       	subi	r21, 0xFF	; 255
      7c:	06 00       	.word	0x0006	; ????
      7e:	00 00       	nop
      80:	00 07       	cpc	r16, r16
      82:	07 00       	.word	0x0007	; ????
      84:	07 07       	cpc	r16, r23
      86:	00 00       	nop
      88:	14 7f       	andi	r17, 0xF4	; 244
      8a:	7f 14       	cp	r7, r15
      8c:	7f 7f       	andi	r23, 0xFF	; 255
      8e:	14 00       	.word	0x0014	; ????
      90:	24 2e       	mov	r2, r20
      92:	6b 6b       	ori	r22, 0xBB	; 187
      94:	3a 12       	cpse	r3, r26
      96:	00 00       	nop
      98:	46 66       	ori	r20, 0x66	; 102
      9a:	30 18       	sub	r3, r0
      9c:	0c 66       	ori	r16, 0x6C	; 108
      9e:	62 00       	.word	0x0062	; ????
      a0:	30 7a       	andi	r19, 0xA0	; 160
      a2:	4f 5d       	subi	r20, 0xDF	; 223
      a4:	37 7a       	andi	r19, 0xA7	; 167
      a6:	48 00       	.word	0x0048	; ????
      a8:	04 07       	cpc	r16, r20
      aa:	03 00       	.word	0x0003	; ????
      ac:	00 00       	nop
      ae:	00 00       	nop
      b0:	00 1c       	adc	r0, r0
      b2:	3e 63       	ori	r19, 0x3E	; 62
      b4:	41 00       	.word	0x0041	; ????
      b6:	00 00       	nop
      b8:	00 41       	sbci	r16, 0x10	; 16
      ba:	63 3e       	cpi	r22, 0xE3	; 227
      bc:	1c 00       	.word	0x001c	; ????
      be:	00 00       	nop
      c0:	08 2a       	or	r0, r24
      c2:	3e 1c       	adc	r3, r14
      c4:	1c 3e       	cpi	r17, 0xEC	; 236
      c6:	2a 08       	sbc	r2, r10
      c8:	08 08       	sbc	r0, r8
      ca:	3e 3e       	cpi	r19, 0xEE	; 238
      cc:	08 08       	sbc	r0, r8
      ce:	00 00       	nop
      d0:	00 a0       	ldd	r0, Z+32	; 0x20
      d2:	e0 60       	ori	r30, 0x00	; 0
      d4:	00 00       	nop
      d6:	00 00       	nop
      d8:	08 08       	sbc	r0, r8
      da:	08 08       	sbc	r0, r8
      dc:	08 08       	sbc	r0, r8
      de:	00 00       	nop
      e0:	00 00       	nop
      e2:	60 60       	ori	r22, 0x00	; 0
      e4:	00 00       	nop
      e6:	00 00       	nop
      e8:	60 30       	cpi	r22, 0x00	; 0
      ea:	18 0c       	add	r1, r8
      ec:	06 03       	mulsu	r16, r22
      ee:	01 00       	.word	0x0001	; ????
      f0:	3e 7f       	andi	r19, 0xFE	; 254
      f2:	59 4d       	sbci	r21, 0xD9	; 217
      f4:	7f 3e       	cpi	r23, 0xEF	; 239
      f6:	00 00       	nop
      f8:	42 42       	sbci	r20, 0x22	; 34
      fa:	7f 7f       	andi	r23, 0xFF	; 255
      fc:	40 40       	sbci	r20, 0x00	; 0
      fe:	00 00       	nop
     100:	62 73       	andi	r22, 0x32	; 50
     102:	59 49       	sbci	r21, 0x99	; 153
     104:	6f 66       	ori	r22, 0x6F	; 111
     106:	00 00       	nop
     108:	22 63       	ori	r18, 0x32	; 50
     10a:	49 49       	sbci	r20, 0x99	; 153
     10c:	7f 36       	cpi	r23, 0x6F	; 111
     10e:	00 00       	nop
     110:	18 1c       	adc	r1, r8
     112:	16 13       	cpse	r17, r22
     114:	7f 7f       	andi	r23, 0xFF	; 255
     116:	10 00       	.word	0x0010	; ????
     118:	27 67       	ori	r18, 0x77	; 119
     11a:	45 45       	sbci	r20, 0x55	; 85
     11c:	7d 39       	cpi	r23, 0x9D	; 157
     11e:	00 00       	nop
     120:	3c 7e       	andi	r19, 0xEC	; 236
     122:	4b 49       	sbci	r20, 0x9B	; 155
     124:	79 30       	cpi	r23, 0x09	; 9
     126:	00 00       	nop
     128:	03 63       	ori	r16, 0x33	; 51
     12a:	71 19       	sub	r23, r1
     12c:	0f 07       	cpc	r16, r31
     12e:	00 00       	nop
     130:	36 7f       	andi	r19, 0xF6	; 246
     132:	49 49       	sbci	r20, 0x99	; 153
     134:	7f 36       	cpi	r23, 0x6F	; 111
     136:	00 00       	nop
     138:	06 4f       	sbci	r16, 0xF6	; 246
     13a:	49 69       	ori	r20, 0x99	; 153
     13c:	3f 1e       	adc	r3, r31
     13e:	00 00       	nop
     140:	00 00       	nop
     142:	6c 6c       	ori	r22, 0xCC	; 204
     144:	00 00       	nop
     146:	00 00       	nop
     148:	00 a0       	ldd	r0, Z+32	; 0x20
     14a:	ec 6c       	ori	r30, 0xCC	; 204
     14c:	00 00       	nop
     14e:	00 00       	nop
     150:	08 1c       	adc	r0, r8
     152:	36 63       	ori	r19, 0x36	; 54
     154:	41 00       	.word	0x0041	; ????
     156:	00 00       	nop
     158:	14 14       	cp	r1, r4
     15a:	14 14       	cp	r1, r4
     15c:	14 14       	cp	r1, r4
     15e:	00 00       	nop
     160:	00 41       	sbci	r16, 0x10	; 16
     162:	63 36       	cpi	r22, 0x63	; 99
     164:	1c 08       	sbc	r1, r12
     166:	00 00       	nop
     168:	02 03       	mulsu	r16, r18
     16a:	51 59       	subi	r21, 0x91	; 145
     16c:	0f 06       	cpc	r0, r31
     16e:	00 00       	nop
     170:	3e 7f       	andi	r19, 0xFE	; 254
     172:	41 5d       	subi	r20, 0xD1	; 209
     174:	5d 1f       	adc	r21, r29
     176:	1e 00       	.word	0x001e	; ????
     178:	7c 7e       	andi	r23, 0xEC	; 236
     17a:	13 13       	cpse	r17, r19
     17c:	7e 7c       	andi	r23, 0xCE	; 206
     17e:	00 00       	nop
     180:	41 7f       	andi	r20, 0xF1	; 241
     182:	7f 49       	sbci	r23, 0x9F	; 159
     184:	49 7f       	andi	r20, 0xF9	; 249
     186:	36 00       	.word	0x0036	; ????
     188:	1c 3e       	cpi	r17, 0xEC	; 236
     18a:	63 41       	sbci	r22, 0x13	; 19
     18c:	41 63       	ori	r20, 0x31	; 49
     18e:	22 00       	.word	0x0022	; ????
     190:	41 7f       	andi	r20, 0xF1	; 241
     192:	7f 41       	sbci	r23, 0x1F	; 31
     194:	63 7f       	andi	r22, 0xF3	; 243
     196:	1c 00       	.word	0x001c	; ????
     198:	41 7f       	andi	r20, 0xF1	; 241
     19a:	7f 49       	sbci	r23, 0x9F	; 159
     19c:	5d 41       	sbci	r21, 0x1D	; 29
     19e:	63 00       	.word	0x0063	; ????
     1a0:	41 7f       	andi	r20, 0xF1	; 241
     1a2:	7f 49       	sbci	r23, 0x9F	; 159
     1a4:	1d 01       	movw	r2, r26
     1a6:	03 00       	.word	0x0003	; ????
     1a8:	1c 3e       	cpi	r17, 0xEC	; 236
     1aa:	63 41       	sbci	r22, 0x13	; 19
     1ac:	51 73       	andi	r21, 0x31	; 49
     1ae:	72 00       	.word	0x0072	; ????
     1b0:	7f 7f       	andi	r23, 0xFF	; 255
     1b2:	08 08       	sbc	r0, r8
     1b4:	7f 7f       	andi	r23, 0xFF	; 255
     1b6:	00 00       	nop
     1b8:	00 41       	sbci	r16, 0x10	; 16
     1ba:	7f 7f       	andi	r23, 0xFF	; 255
     1bc:	41 00       	.word	0x0041	; ????
     1be:	00 00       	nop
     1c0:	30 70       	andi	r19, 0x00	; 0
     1c2:	40 41       	sbci	r20, 0x10	; 16
     1c4:	7f 3f       	cpi	r23, 0xFF	; 255
     1c6:	01 00       	.word	0x0001	; ????
     1c8:	41 7f       	andi	r20, 0xF1	; 241
     1ca:	7f 08       	sbc	r7, r15
     1cc:	1c 77       	andi	r17, 0x7C	; 124
     1ce:	63 00       	.word	0x0063	; ????
     1d0:	41 7f       	andi	r20, 0xF1	; 241
     1d2:	7f 41       	sbci	r23, 0x1F	; 31
     1d4:	40 60       	ori	r20, 0x00	; 0
     1d6:	70 00       	.word	0x0070	; ????
     1d8:	7f 7f       	andi	r23, 0xFF	; 255
     1da:	06 0c       	add	r0, r6
     1dc:	06 7f       	andi	r16, 0xF6	; 246
     1de:	7f 00       	.word	0x007f	; ????
     1e0:	7f 7f       	andi	r23, 0xFF	; 255
     1e2:	06 0c       	add	r0, r6
     1e4:	18 7f       	andi	r17, 0xF8	; 248
     1e6:	7f 00       	.word	0x007f	; ????
     1e8:	1c 3e       	cpi	r17, 0xEC	; 236
     1ea:	63 41       	sbci	r22, 0x13	; 19
     1ec:	63 3e       	cpi	r22, 0xE3	; 227
     1ee:	1c 00       	.word	0x001c	; ????
     1f0:	41 7f       	andi	r20, 0xF1	; 241
     1f2:	7f 49       	sbci	r23, 0x9F	; 159
     1f4:	09 0f       	add	r16, r25
     1f6:	06 00       	.word	0x0006	; ????
     1f8:	1e 3f       	cpi	r17, 0xFE	; 254
     1fa:	21 71       	andi	r18, 0x11	; 17
     1fc:	7f 5e       	subi	r23, 0xEF	; 239
     1fe:	00 00       	nop
     200:	41 7f       	andi	r20, 0xF1	; 241
     202:	7f 19       	sub	r23, r15
     204:	39 6f       	ori	r19, 0xF9	; 249
     206:	46 00       	.word	0x0046	; ????
     208:	26 67       	ori	r18, 0x76	; 118
     20a:	4d 59       	subi	r20, 0x9D	; 157
     20c:	7b 32       	cpi	r23, 0x2B	; 43
     20e:	00 00       	nop
     210:	03 41       	sbci	r16, 0x13	; 19
     212:	7f 7f       	andi	r23, 0xFF	; 255
     214:	41 03       	mulsu	r20, r17
     216:	00 00       	nop
     218:	7f 7f       	andi	r23, 0xFF	; 255
     21a:	40 40       	sbci	r20, 0x00	; 0
     21c:	7f 7f       	andi	r23, 0xFF	; 255
     21e:	00 00       	nop
     220:	1f 3f       	cpi	r17, 0xFF	; 255
     222:	60 60       	ori	r22, 0x00	; 0
     224:	3f 1f       	adc	r19, r31
     226:	00 00       	nop
     228:	7f 7f       	andi	r23, 0xFF	; 255
     22a:	30 18       	sub	r3, r0
     22c:	30 7f       	andi	r19, 0xF0	; 240
     22e:	7f 00       	.word	0x007f	; ????
     230:	63 77       	andi	r22, 0x73	; 115
     232:	1c 08       	sbc	r1, r12
     234:	1c 77       	andi	r17, 0x7C	; 124
     236:	63 00       	.word	0x0063	; ????
     238:	07 4f       	sbci	r16, 0xF7	; 247
     23a:	78 78       	andi	r23, 0x88	; 136
     23c:	4f 07       	cpc	r20, r31
     23e:	00 00       	nop
     240:	67 73       	andi	r22, 0x37	; 55
     242:	59 4d       	sbci	r21, 0xD9	; 217
     244:	47 63       	ori	r20, 0x37	; 55
     246:	71 00       	.word	0x0071	; ????
     248:	00 7f       	andi	r16, 0xF0	; 240
     24a:	7f 41       	sbci	r23, 0x1F	; 31
     24c:	41 00       	.word	0x0041	; ????
     24e:	00 00       	nop
     250:	01 03       	mulsu	r16, r17
     252:	06 0c       	add	r0, r6
     254:	18 30       	cpi	r17, 0x08	; 8
     256:	60 00       	.word	0x0060	; ????
     258:	00 41       	sbci	r16, 0x10	; 16
     25a:	41 7f       	andi	r20, 0xF1	; 241
     25c:	7f 00       	.word	0x007f	; ????
     25e:	00 00       	nop
     260:	08 0c       	add	r0, r8
     262:	06 03       	mulsu	r16, r22
     264:	06 0c       	add	r0, r6
     266:	08 00       	.word	0x0008	; ????
     268:	80 80       	ld	r8, Z
     26a:	80 80       	ld	r8, Z
     26c:	80 80       	ld	r8, Z
     26e:	80 80       	ld	r8, Z
     270:	00 00       	nop
     272:	03 07       	cpc	r16, r19
     274:	04 00       	.word	0x0004	; ????
     276:	00 00       	nop
     278:	20 74       	andi	r18, 0x40	; 64
     27a:	54 54       	subi	r21, 0x44	; 68
     27c:	3c 78       	andi	r19, 0x8C	; 140
     27e:	40 00       	.word	0x0040	; ????
     280:	41 3f       	cpi	r20, 0xF1	; 241
     282:	7f 44       	sbci	r23, 0x4F	; 79
     284:	44 7c       	andi	r20, 0xC4	; 196
     286:	38 00       	.word	0x0038	; ????
     288:	38 7c       	andi	r19, 0xC8	; 200
     28a:	44 44       	sbci	r20, 0x44	; 68
     28c:	6c 28       	or	r6, r12
     28e:	00 00       	nop
     290:	30 78       	andi	r19, 0x80	; 128
     292:	48 49       	sbci	r20, 0x98	; 152
     294:	3f 7f       	andi	r19, 0xFF	; 255
     296:	40 00       	.word	0x0040	; ????
     298:	38 7c       	andi	r19, 0xC8	; 200
     29a:	54 54       	subi	r21, 0x44	; 68
     29c:	5c 18       	sub	r5, r12
     29e:	00 00       	nop
     2a0:	48 7e       	andi	r20, 0xE8	; 232
     2a2:	7f 49       	sbci	r23, 0x9F	; 159
     2a4:	03 02       	muls	r16, r19
     2a6:	00 00       	nop
     2a8:	98 bc       	out	0x28, r9	; 40
     2aa:	a4 a4       	ldd	r10, Z+44	; 0x2c
     2ac:	f8 7c       	andi	r31, 0xC8	; 200
     2ae:	04 00       	.word	0x0004	; ????
     2b0:	41 7f       	andi	r20, 0xF1	; 241
     2b2:	7f 08       	sbc	r7, r15
     2b4:	04 7c       	andi	r16, 0xC4	; 196
     2b6:	78 00       	.word	0x0078	; ????
     2b8:	00 44       	sbci	r16, 0x40	; 64
     2ba:	7d 7d       	andi	r23, 0xDD	; 221
     2bc:	40 00       	.word	0x0040	; ????
     2be:	00 00       	nop
     2c0:	40 c4       	rjmp	.+2176   	; 0xb42 <main+0x10>
     2c2:	84 fd       	sbrc	r24, 4
     2c4:	7d 00       	.word	0x007d	; ????
     2c6:	00 00       	nop
     2c8:	41 7f       	andi	r20, 0xF1	; 241
     2ca:	7f 10       	cpse	r7, r15
     2cc:	38 6c       	ori	r19, 0xC8	; 200
     2ce:	44 00       	.word	0x0044	; ????
     2d0:	00 41       	sbci	r16, 0x10	; 16
     2d2:	7f 7f       	andi	r23, 0xFF	; 255
     2d4:	40 00       	.word	0x0040	; ????
     2d6:	00 00       	nop
     2d8:	7c 7c       	andi	r23, 0xCC	; 204
     2da:	0c 18       	sub	r0, r12
     2dc:	0c 7c       	andi	r16, 0xCC	; 204
     2de:	78 00       	.word	0x0078	; ????
     2e0:	7c 7c       	andi	r23, 0xCC	; 204
     2e2:	04 04       	cpc	r0, r4
     2e4:	7c 78       	andi	r23, 0x8C	; 140
     2e6:	00 00       	nop
     2e8:	38 7c       	andi	r19, 0xC8	; 200
     2ea:	44 44       	sbci	r20, 0x44	; 68
     2ec:	7c 38       	cpi	r23, 0x8C	; 140
     2ee:	00 00       	nop
     2f0:	84 fc       	sbrc	r8, 4
     2f2:	f8 a4       	ldd	r15, Y+40	; 0x28
     2f4:	24 3c       	cpi	r18, 0xC4	; 196
     2f6:	18 00       	.word	0x0018	; ????
     2f8:	18 3c       	cpi	r17, 0xC8	; 200
     2fa:	24 a4       	ldd	r2, Z+44	; 0x2c
     2fc:	f8 fc       	.word	0xfcf8	; ????
     2fe:	84 00       	.word	0x0084	; ????
     300:	44 7c       	andi	r20, 0xC4	; 196
     302:	78 44       	sbci	r23, 0x48	; 72
     304:	1c 18       	sub	r1, r12
     306:	00 00       	nop
     308:	48 5c       	subi	r20, 0xC8	; 200
     30a:	54 54       	subi	r21, 0x44	; 68
     30c:	74 24       	eor	r7, r4
     30e:	00 00       	nop
     310:	00 04       	cpc	r0, r0
     312:	3e 7f       	andi	r19, 0xFE	; 254
     314:	44 24       	eor	r4, r4
     316:	00 00       	nop
     318:	3c 7c       	andi	r19, 0xCC	; 204
     31a:	40 40       	sbci	r20, 0x00	; 0
     31c:	3c 7c       	andi	r19, 0xCC	; 204
     31e:	40 00       	.word	0x0040	; ????
     320:	1c 3c       	cpi	r17, 0xCC	; 204
     322:	60 60       	ori	r22, 0x00	; 0
     324:	3c 1c       	adc	r3, r12
     326:	00 00       	nop
     328:	3c 7c       	andi	r19, 0xCC	; 204
     32a:	60 30       	cpi	r22, 0x00	; 0
     32c:	60 7c       	andi	r22, 0xC0	; 192
     32e:	3c 00       	.word	0x003c	; ????
     330:	44 6c       	ori	r20, 0xC4	; 196
     332:	38 10       	cpse	r3, r8
     334:	38 6c       	ori	r19, 0xC8	; 200
     336:	44 00       	.word	0x0044	; ????
     338:	9c bc       	out	0x2c, r9	; 44
     33a:	a0 a0       	ldd	r10, Z+32	; 0x20
     33c:	fc 7c       	andi	r31, 0xCC	; 204
     33e:	00 00       	nop
     340:	4c 64       	ori	r20, 0x4C	; 76
     342:	74 5c       	subi	r23, 0xC4	; 196
     344:	4c 64       	ori	r20, 0x4C	; 76
     346:	00 00       	nop
     348:	08 08       	sbc	r0, r8
     34a:	3e 77       	andi	r19, 0x7E	; 126
     34c:	41 41       	sbci	r20, 0x11	; 17
     34e:	00 00       	nop
     350:	00 00       	nop
     352:	00 77       	andi	r16, 0x70	; 112
     354:	77 00       	.word	0x0077	; ????
     356:	00 00       	nop
     358:	41 41       	sbci	r20, 0x11	; 17
     35a:	77 3e       	cpi	r23, 0xE7	; 231
     35c:	08 08       	sbc	r0, r8
     35e:	00 00       	nop
     360:	02 03       	mulsu	r16, r18
     362:	01 03       	mulsu	r16, r17
     364:	02 03       	mulsu	r16, r18
     366:	01 00       	.word	0x0001	; ????

00000368 <__ctors_end>:
     368:	11 24       	eor	r1, r1
     36a:	1f be       	out	0x3f, r1	; 63
     36c:	cf ef       	ldi	r28, 0xFF	; 255
     36e:	d4 e0       	ldi	r29, 0x04	; 4
     370:	de bf       	out	0x3e, r29	; 62
     372:	cd bf       	out	0x3d, r28	; 61

00000374 <__do_copy_data>:
     374:	13 e0       	ldi	r17, 0x03	; 3
     376:	a0 e0       	ldi	r26, 0x00	; 0
     378:	b1 e0       	ldi	r27, 0x01	; 1
     37a:	ee e4       	ldi	r30, 0x4E	; 78
     37c:	f4 e1       	ldi	r31, 0x14	; 20
     37e:	02 c0       	rjmp	.+4      	; 0x384 <__do_copy_data+0x10>
     380:	05 90       	lpm	r0, Z+
     382:	0d 92       	st	X+, r0
     384:	ac 34       	cpi	r26, 0x4C	; 76
     386:	b1 07       	cpc	r27, r17
     388:	d9 f7       	brne	.-10     	; 0x380 <__do_copy_data+0xc>

0000038a <__do_clear_bss>:
     38a:	23 e0       	ldi	r18, 0x03	; 3
     38c:	ac e4       	ldi	r26, 0x4C	; 76
     38e:	b3 e0       	ldi	r27, 0x03	; 3
     390:	01 c0       	rjmp	.+2      	; 0x394 <.do_clear_bss_start>

00000392 <.do_clear_bss_loop>:
     392:	1d 92       	st	X+, r1

00000394 <.do_clear_bss_start>:
     394:	a6 35       	cpi	r26, 0x56	; 86
     396:	b2 07       	cpc	r27, r18
     398:	e1 f7       	brne	.-8      	; 0x392 <.do_clear_bss_loop>
     39a:	0e 94 99 05 	call	0xb32	; 0xb32 <main>
     39e:	0c 94 25 0a 	jmp	0x144a	; 0x144a <_exit>

000003a2 <__bad_interrupt>:
     3a2:	0c 94 00 00 	jmp	0	; 0x0 <__vectors>

000003a6 <CAN_init>:

#include "can_driver.h"
#include <avr/interrupt.h>

void CAN_init(){
	mcp2515_init();
     3a6:	0e 94 79 02 	call	0x4f2	; 0x4f2 <mcp2515_init>
	
	//Set CNF1-> BRP = 3 and SJW = 3
	mcp2515_write(MCP_CNF1, CAN_BRP|SJW4);
     3aa:	63 ec       	ldi	r22, 0xC3	; 195
     3ac:	8a e2       	ldi	r24, 0x2A	; 42
     3ae:	0e 94 95 02 	call	0x52a	; 0x52a <mcp2515_write>
	
	//Set CNF2-> BTLMODE: 1 , SAM: 0 , PHSEG: 3 and PRSEG: 1  
	mcp2515_write(MCP_CNF2, BTLMODE | SAMPLE_1X | PHSEG1 | PRSEG);
     3b2:	61 eb       	ldi	r22, 0xB1	; 177
     3b4:	89 e2       	ldi	r24, 0x29	; 41
     3b6:	0e 94 95 02 	call	0x52a	; 0x52a <mcp2515_write>
	
	//Set CNF3-> SOF: 0, WAKFIL: 0 PHSEG2: 5
	mcp2515_write(MCP_CNF3, SOF_DISABLE | WAKFIL_DISABLE | PHSEG2);
     3ba:	65 e0       	ldi	r22, 0x05	; 5
     3bc:	88 e2       	ldi	r24, 0x28	; 40
     3be:	0e 94 95 02 	call	0x52a	; 0x52a <mcp2515_write>
	
	//Sette Loopback- mode når konfigurert ferdig
	mcp2515_bit_modify(MCP_CANCTRL, MODE_MASK, MODE_LOOPBACK);	//Velger Loopback-mode, se register 10-1 i MCP2515 datasheet
     3c2:	40 e4       	ldi	r20, 0x40	; 64
     3c4:	60 ee       	ldi	r22, 0xE0	; 224
     3c6:	8f e0       	ldi	r24, 0x0F	; 15
     3c8:	0e 94 b1 02 	call	0x562	; 0x562 <mcp2515_bit_modify>
     3cc:	08 95       	ret

000003ce <CAN_transmit>:
	//mcp2515_bit_modify(MCP_CANINTE, MCP_TX0IF ,MCP_TX0IF); //skal bare ha en av disse, de gjør nesten det samme, men ikke helt. Første her nå skriver hele registeret til å være lik TX0IF og ikke bare ORer inn
	//MCP_CANINTE |= MCP_TX0IF;	// setter TX0IE-bitet i CANINTE. Bruker flagg-register-bit fordi det er de som er definert i h-filen til mcp, men bitene har samme plass i CANINTE og CANINTF, så det er same same
	//mcp2515_write(MCP_RXB0CTRL, MCP_RXM0 | MCP_RXM1);	//MCP_RXB0CTRL = 0b0110 0000
}

void CAN_transmit(Frame message){
     3ce:	ef 92       	push	r14
     3d0:	ff 92       	push	r15
     3d2:	0f 93       	push	r16
     3d4:	1f 93       	push	r17
     3d6:	cf 93       	push	r28
     3d8:	df 93       	push	r29
     3da:	cd b7       	in	r28, 0x3d	; 61
     3dc:	de b7       	in	r29, 0x3e	; 62
     3de:	2b 97       	sbiw	r28, 0x0b	; 11
     3e0:	0f b6       	in	r0, 0x3f	; 63
     3e2:	f8 94       	cli
     3e4:	de bf       	out	0x3e, r29	; 62
     3e6:	0f be       	out	0x3f, r0	; 63
     3e8:	cd bf       	out	0x3d, r28	; 61
     3ea:	e9 82       	std	Y+1, r14	; 0x01
     3ec:	fa 82       	std	Y+2, r15	; 0x02
     3ee:	0b 83       	std	Y+3, r16	; 0x03
     3f0:	1c 83       	std	Y+4, r17	; 0x04
     3f2:	2d 83       	std	Y+5, r18	; 0x05
     3f4:	3e 83       	std	Y+6, r19	; 0x06
     3f6:	4f 83       	std	Y+7, r20	; 0x07
     3f8:	58 87       	std	Y+8, r21	; 0x08
     3fa:	69 87       	std	Y+9, r22	; 0x09
     3fc:	7a 87       	std	Y+10, r23	; 0x0a
     3fe:	8b 87       	std	Y+11, r24	; 0x0b
	mcp2515_write(MCP_TXB0SIDH, message.message_IDH);
     400:	6e 2d       	mov	r22, r14
     402:	81 e3       	ldi	r24, 0x31	; 49
     404:	0e 94 95 02 	call	0x52a	; 0x52a <mcp2515_write>
	mcp2515_write(MCP_TXB0SIDL, message.message_IDL);
     408:	6a 81       	ldd	r22, Y+2	; 0x02
     40a:	82 e3       	ldi	r24, 0x32	; 50
     40c:	0e 94 95 02 	call	0x52a	; 0x52a <mcp2515_write>
	
	mcp2515_write(MCP_TXB0DLC, message.data_lenght);
     410:	fb 80       	ldd	r15, Y+3	; 0x03
     412:	6f 2d       	mov	r22, r15
     414:	85 e3       	ldi	r24, 0x35	; 53
     416:	0e 94 95 02 	call	0x52a	; 0x52a <mcp2515_write>
	for (int i = 0; i < message.data_lenght; i++){
     41a:	00 e0       	ldi	r16, 0x00	; 0
     41c:	10 e0       	ldi	r17, 0x00	; 0
     41e:	0d c0       	rjmp	.+26     	; 0x43a <__DATA_REGION_LENGTH__+0x3a>
		mcp2515_write(MCP_TXB0D0 + i, message.data[i]);
     420:	e4 e0       	ldi	r30, 0x04	; 4
     422:	f0 e0       	ldi	r31, 0x00	; 0
     424:	ec 0f       	add	r30, r28
     426:	fd 1f       	adc	r31, r29
     428:	e0 0f       	add	r30, r16
     42a:	f1 1f       	adc	r31, r17
     42c:	60 81       	ld	r22, Z
     42e:	86 e3       	ldi	r24, 0x36	; 54
     430:	80 0f       	add	r24, r16
     432:	0e 94 95 02 	call	0x52a	; 0x52a <mcp2515_write>
void CAN_transmit(Frame message){
	mcp2515_write(MCP_TXB0SIDH, message.message_IDH);
	mcp2515_write(MCP_TXB0SIDL, message.message_IDL);
	
	mcp2515_write(MCP_TXB0DLC, message.data_lenght);
	for (int i = 0; i < message.data_lenght; i++){
     436:	0f 5f       	subi	r16, 0xFF	; 255
     438:	1f 4f       	sbci	r17, 0xFF	; 255
     43a:	8f 2d       	mov	r24, r15
     43c:	90 e0       	ldi	r25, 0x00	; 0
     43e:	08 17       	cp	r16, r24
     440:	19 07       	cpc	r17, r25
     442:	74 f3       	brlt	.-36     	; 0x420 <__DATA_REGION_LENGTH__+0x20>
		mcp2515_write(MCP_TXB0D0 + i, message.data[i]);
	}
	
	mcp2515_request_to_send();
     444:	0e 94 a9 02 	call	0x552	; 0x552 <mcp2515_request_to_send>
}
     448:	2b 96       	adiw	r28, 0x0b	; 11
     44a:	0f b6       	in	r0, 0x3f	; 63
     44c:	f8 94       	cli
     44e:	de bf       	out	0x3e, r29	; 62
     450:	0f be       	out	0x3f, r0	; 63
     452:	cd bf       	out	0x3d, r28	; 61
     454:	df 91       	pop	r29
     456:	cf 91       	pop	r28
     458:	1f 91       	pop	r17
     45a:	0f 91       	pop	r16
     45c:	ff 90       	pop	r15
     45e:	ef 90       	pop	r14
     460:	08 95       	ret

00000462 <CAN_recieve>:

Frame CAN_recieve(){
     462:	ff 92       	push	r15
     464:	0f 93       	push	r16
     466:	1f 93       	push	r17
     468:	cf 93       	push	r28
     46a:	df 93       	push	r29
     46c:	8c 01       	movw	r16, r24
	Frame message;
	 
	// Tips for feilsøking:	mcp2515_read_status();
	message.message_IDH = mcp2515_read(MCP_RXB0SIDH);
     46e:	81 e6       	ldi	r24, 0x61	; 97
     470:	0e 94 67 02 	call	0x4ce	; 0x4ce <mcp2515_read>
     474:	f8 01       	movw	r30, r16
     476:	80 83       	st	Z, r24
	message.message_IDL = mcp2515_read(MCP_RXB0SIDL);
     478:	82 e6       	ldi	r24, 0x62	; 98
     47a:	0e 94 67 02 	call	0x4ce	; 0x4ce <mcp2515_read>
     47e:	f8 01       	movw	r30, r16
     480:	81 83       	std	Z+1, r24	; 0x01
	message.data_lenght = mcp2515_read(MCP_RXB0DLC);
     482:	85 e6       	ldi	r24, 0x65	; 101
     484:	0e 94 67 02 	call	0x4ce	; 0x4ce <mcp2515_read>
     488:	f8 2e       	mov	r15, r24
     48a:	f8 01       	movw	r30, r16
     48c:	82 83       	std	Z+2, r24	; 0x02
	
	for (int i = 0; i < message.data_lenght; i++){
     48e:	c0 e0       	ldi	r28, 0x00	; 0
     490:	d0 e0       	ldi	r29, 0x00	; 0
     492:	09 c0       	rjmp	.+18     	; 0x4a6 <CAN_recieve+0x44>
		message.data[i] = mcp2515_read(MCP_RXB0D0 + i);
     494:	8c 2f       	mov	r24, r28
     496:	8a 59       	subi	r24, 0x9A	; 154
     498:	0e 94 67 02 	call	0x4ce	; 0x4ce <mcp2515_read>
     49c:	f8 01       	movw	r30, r16
     49e:	ec 0f       	add	r30, r28
     4a0:	fd 1f       	adc	r31, r29
     4a2:	83 83       	std	Z+3, r24	; 0x03
	// Tips for feilsøking:	mcp2515_read_status();
	message.message_IDH = mcp2515_read(MCP_RXB0SIDH);
	message.message_IDL = mcp2515_read(MCP_RXB0SIDL);
	message.data_lenght = mcp2515_read(MCP_RXB0DLC);
	
	for (int i = 0; i < message.data_lenght; i++){
     4a4:	21 96       	adiw	r28, 0x01	; 1
     4a6:	8f 2d       	mov	r24, r15
     4a8:	90 e0       	ldi	r25, 0x00	; 0
     4aa:	c8 17       	cp	r28, r24
     4ac:	d9 07       	cpc	r29, r25
     4ae:	94 f3       	brlt	.-28     	; 0x494 <CAN_recieve+0x32>
		message.data[i] = mcp2515_read(MCP_RXB0D0 + i);
	}
	
	return message;
}
     4b0:	c8 01       	movw	r24, r16
     4b2:	df 91       	pop	r29
     4b4:	cf 91       	pop	r28
     4b6:	1f 91       	pop	r17
     4b8:	0f 91       	pop	r16
     4ba:	ff 90       	pop	r15
     4bc:	08 95       	ret

000004be <mcp2515_reset>:
#include "mcp2515_driver.h"

void mcp2515_reset(){
	// setter CS lav, deretter sender vi instruksjonen MCP_RESET som resetter interne registre og setter config-modus. Setter så CS høy
	//CS = SS, siden vi kun har en slave
	set_SS_low();
     4be:	0e 94 07 03 	call	0x60e	; 0x60e <set_SS_low>
	SPI_send(MCP_RESET);
     4c2:	80 ec       	ldi	r24, 0xC0	; 192
     4c4:	0e 94 20 03 	call	0x640	; 0x640 <SPI_send>
	set_SS_high();
     4c8:	0e 94 0b 03 	call	0x616	; 0x616 <set_SS_high>
     4cc:	08 95       	ret

000004ce <mcp2515_read>:
	
	return 0;
}


uint8_t mcp2515_read(uint8_t address){
     4ce:	cf 93       	push	r28
     4d0:	c8 2f       	mov	r28, r24
	uint8_t result;
	
	set_SS_low();
     4d2:	0e 94 07 03 	call	0x60e	; 0x60e <set_SS_low>
	//PORTB &= ~(1 << PB4); // Select CAN - controller -> bruke funksjonen vår slaveselect low
	
	SPI_send(MCP_READ); // Send read instruction
     4d6:	83 e0       	ldi	r24, 0x03	; 3
     4d8:	0e 94 20 03 	call	0x640	; 0x640 <SPI_send>
	SPI_send(address); // Send address
     4dc:	8c 2f       	mov	r24, r28
     4de:	0e 94 20 03 	call	0x640	; 0x640 <SPI_send>
	result = SPI_read(); // Read result
     4e2:	0e 94 24 03 	call	0x648	; 0x648 <SPI_read>
     4e6:	c8 2f       	mov	r28, r24
	
	//PORTB |= (1 << CAN_CS); // Deselect CAN - controller
	set_SS_high();
     4e8:	0e 94 0b 03 	call	0x616	; 0x616 <set_SS_high>
	return result;
}
     4ec:	8c 2f       	mov	r24, r28
     4ee:	cf 91       	pop	r28
     4f0:	08 95       	ret

000004f2 <mcp2515_init>:
	set_SS_low();
	SPI_send(MCP_RESET);
	set_SS_high();
}

uint8_t mcp2515_init(){
     4f2:	cf 93       	push	r28
	uint8_t value;
	SPI_init(); // Initialize SPI
     4f4:	0e 94 0f 03 	call	0x61e	; 0x61e <SPI_init>
	mcp2515_reset(); // Send reset - command
     4f8:	0e 94 5f 02 	call	0x4be	; 0x4be <mcp2515_reset>
	//De to neste linjene er forsøk på å endre mode 
	//mcp2515_write(MCP_CANCTRL, MODE_CONFIG );
	//mcp2515_bit_modify(MCP_CANCTRL, MODE_MASK, MODE_LISTENONLY);
	
	// Self - test
	value = mcp2515_read(MCP_CANSTAT);
     4fc:	8e e0       	ldi	r24, 0x0E	; 14
     4fe:	0e 94 67 02 	call	0x4ce	; 0x4ce <mcp2515_read>
     502:	c8 2f       	mov	r28, r24
	uint8_t can_ctrl = mcp2515_read(MCP_CANCTRL);
     504:	8f e0       	ldi	r24, 0x0F	; 15
     506:	0e 94 67 02 	call	0x4ce	; 0x4ce <mcp2515_read>
	if ((value & MODE_MASK) != MODE_CONFIG){
     50a:	c0 7e       	andi	r28, 0xE0	; 224
     50c:	c0 38       	cpi	r28, 0x80	; 128
     50e:	51 f0       	breq	.+20     	; 0x524 <__stack+0x25>
		printf ("MCP2515 is NOT in configuration mode after reset !\n\r");
     510:	86 e9       	ldi	r24, 0x96	; 150
     512:	91 e0       	ldi	r25, 0x01	; 1
     514:	9f 93       	push	r25
     516:	8f 93       	push	r24
     518:	0e 94 03 06 	call	0xc06	; 0xc06 <printf>
		return 1;
     51c:	0f 90       	pop	r0
     51e:	0f 90       	pop	r0
     520:	81 e0       	ldi	r24, 0x01	; 1
     522:	01 c0       	rjmp	.+2      	; 0x526 <__stack+0x27>
	}
	// More initialization
	//----------------------------------------------------------------------------------------------------------------------------------------------------------------------------------------------------------------
	
	return 0;
     524:	80 e0       	ldi	r24, 0x00	; 0
}
     526:	cf 91       	pop	r28
     528:	08 95       	ret

0000052a <mcp2515_write>:
	//PORTB |= (1 << CAN_CS); // Deselect CAN - controller
	set_SS_high();
	return result;
}

void mcp2515_write(uint8_t address, uint8_t data){
     52a:	cf 93       	push	r28
     52c:	df 93       	push	r29
     52e:	d8 2f       	mov	r29, r24
     530:	c6 2f       	mov	r28, r22
	set_SS_low();
     532:	0e 94 07 03 	call	0x60e	; 0x60e <set_SS_low>
	SPI_send(MCP_WRITE);
     536:	82 e0       	ldi	r24, 0x02	; 2
     538:	0e 94 20 03 	call	0x640	; 0x640 <SPI_send>
	SPI_send(address);
     53c:	8d 2f       	mov	r24, r29
     53e:	0e 94 20 03 	call	0x640	; 0x640 <SPI_send>
	SPI_send(data);
     542:	8c 2f       	mov	r24, r28
     544:	0e 94 20 03 	call	0x640	; 0x640 <SPI_send>
	set_SS_high();
     548:	0e 94 0b 03 	call	0x616	; 0x616 <set_SS_high>
}
     54c:	df 91       	pop	r29
     54e:	cf 91       	pop	r28
     550:	08 95       	ret

00000552 <mcp2515_request_to_send>:

void mcp2515_request_to_send(){
	set_SS_low();
     552:	0e 94 07 03 	call	0x60e	; 0x60e <set_SS_low>
	SPI_send(MCP_RTS_TX0);	// setter MCP_TXB0CTRL.TXREQ-bitet for bufferet vårt (TX0)
     556:	81 e8       	ldi	r24, 0x81	; 129
     558:	0e 94 20 03 	call	0x640	; 0x640 <SPI_send>
	set_SS_high();
     55c:	0e 94 0b 03 	call	0x616	; 0x616 <set_SS_high>
     560:	08 95       	ret

00000562 <mcp2515_bit_modify>:
}

void mcp2515_bit_modify(uint8_t address, uint8_t mask, uint8_t data){
     562:	ff 92       	push	r15
     564:	0f 93       	push	r16
     566:	1f 93       	push	r17
     568:	cf 93       	push	r28
     56a:	df 93       	push	r29
     56c:	cd b7       	in	r28, 0x3d	; 61
     56e:	de b7       	in	r29, 0x3e	; 62
     570:	2c 97       	sbiw	r28, 0x0c	; 12
     572:	0f b6       	in	r0, 0x3f	; 63
     574:	f8 94       	cli
     576:	de bf       	out	0x3e, r29	; 62
     578:	0f be       	out	0x3f, r0	; 63
     57a:	cd bf       	out	0x3d, r28	; 61
     57c:	18 2f       	mov	r17, r24
     57e:	f6 2e       	mov	r15, r22
     580:	04 2f       	mov	r16, r20
	set_SS_low();
     582:	0e 94 07 03 	call	0x60e	; 0x60e <set_SS_low>
	uint8_t register_list[12] = {MCP_TXB0CTRL, MCP_TXB1CTRL, MCP_TXB2CTRL, MCP_RXB0CTRL, MCP_RXB1CTRL, MCP_CNF3, MCP_CNF2, MCP_CNF1, MCP_CANINTE, MCP_CANINTF, MCP_EFLG, MCP_CANCTRL};	//MCP_BFPCTRL, MCP_TXRTSCTRL er i listen i databladet, men ikke i filen med registre vi fikk fra BlackBoard
     586:	8c e0       	ldi	r24, 0x0C	; 12
     588:	e8 e0       	ldi	r30, 0x08	; 8
     58a:	f1 e0       	ldi	r31, 0x01	; 1
     58c:	de 01       	movw	r26, r28
     58e:	11 96       	adiw	r26, 0x01	; 1
     590:	01 90       	ld	r0, Z+
     592:	0d 92       	st	X+, r0
     594:	8a 95       	dec	r24
     596:	e1 f7       	brne	.-8      	; 0x590 <mcp2515_bit_modify+0x2e>
	
	uint8_t address_in_list = 0;
	
	for(int i = 0; i < 12; i++){
     598:	80 e0       	ldi	r24, 0x00	; 0
     59a:	90 e0       	ldi	r25, 0x00	; 0
     59c:	1a c0       	rjmp	.+52     	; 0x5d2 <mcp2515_bit_modify+0x70>
		if(register_list[i] == address){
     59e:	e1 e0       	ldi	r30, 0x01	; 1
     5a0:	f0 e0       	ldi	r31, 0x00	; 0
     5a2:	ec 0f       	add	r30, r28
     5a4:	fd 1f       	adc	r31, r29
     5a6:	e8 0f       	add	r30, r24
     5a8:	f9 1f       	adc	r31, r25
     5aa:	20 81       	ld	r18, Z
     5ac:	21 13       	cpse	r18, r17
     5ae:	10 c0       	rjmp	.+32     	; 0x5d0 <mcp2515_bit_modify+0x6e>
			SPI_send(MCP_BITMOD);
     5b0:	85 e0       	ldi	r24, 0x05	; 5
     5b2:	0e 94 20 03 	call	0x640	; 0x640 <SPI_send>
			//må sjekke om address som vi tok inn som input faktisk er i listen over registre som er lov å manipulere manuelt bit for bit
			SPI_send(address);
     5b6:	81 2f       	mov	r24, r17
     5b8:	0e 94 20 03 	call	0x640	; 0x640 <SPI_send>
			SPI_send(mask);
     5bc:	8f 2d       	mov	r24, r15
     5be:	0e 94 20 03 	call	0x640	; 0x640 <SPI_send>
			SPI_send(data);
     5c2:	80 2f       	mov	r24, r16
     5c4:	0e 94 20 03 	call	0x640	; 0x640 <SPI_send>
			set_SS_high();
     5c8:	0e 94 0b 03 	call	0x616	; 0x616 <set_SS_high>
			address_in_list = 1;
     5cc:	81 e0       	ldi	r24, 0x01	; 1
			break;
     5ce:	05 c0       	rjmp	.+10     	; 0x5da <mcp2515_bit_modify+0x78>
	set_SS_low();
	uint8_t register_list[12] = {MCP_TXB0CTRL, MCP_TXB1CTRL, MCP_TXB2CTRL, MCP_RXB0CTRL, MCP_RXB1CTRL, MCP_CNF3, MCP_CNF2, MCP_CNF1, MCP_CANINTE, MCP_CANINTF, MCP_EFLG, MCP_CANCTRL};	//MCP_BFPCTRL, MCP_TXRTSCTRL er i listen i databladet, men ikke i filen med registre vi fikk fra BlackBoard
	
	uint8_t address_in_list = 0;
	
	for(int i = 0; i < 12; i++){
     5d0:	01 96       	adiw	r24, 0x01	; 1
     5d2:	8c 30       	cpi	r24, 0x0C	; 12
     5d4:	91 05       	cpc	r25, r1
     5d6:	1c f3       	brlt	.-58     	; 0x59e <mcp2515_bit_modify+0x3c>

void mcp2515_bit_modify(uint8_t address, uint8_t mask, uint8_t data){
	set_SS_low();
	uint8_t register_list[12] = {MCP_TXB0CTRL, MCP_TXB1CTRL, MCP_TXB2CTRL, MCP_RXB0CTRL, MCP_RXB1CTRL, MCP_CNF3, MCP_CNF2, MCP_CNF1, MCP_CANINTE, MCP_CANINTF, MCP_EFLG, MCP_CANCTRL};	//MCP_BFPCTRL, MCP_TXRTSCTRL er i listen i databladet, men ikke i filen med registre vi fikk fra BlackBoard
	
	uint8_t address_in_list = 0;
     5d8:	80 e0       	ldi	r24, 0x00	; 0
			address_in_list = 1;
			break;
		}
	}
	
	if (address_in_list == 0){
     5da:	81 11       	cpse	r24, r1
     5dc:	0c c0       	rjmp	.+24     	; 0x5f6 <mcp2515_bit_modify+0x94>
		printf("You can not bit-modify register %d \n", address);
     5de:	1f 92       	push	r1
     5e0:	1f 93       	push	r17
     5e2:	8b ec       	ldi	r24, 0xCB	; 203
     5e4:	91 e0       	ldi	r25, 0x01	; 1
     5e6:	9f 93       	push	r25
     5e8:	8f 93       	push	r24
     5ea:	0e 94 03 06 	call	0xc06	; 0xc06 <printf>
     5ee:	0f 90       	pop	r0
     5f0:	0f 90       	pop	r0
     5f2:	0f 90       	pop	r0
     5f4:	0f 90       	pop	r0
	}
}
     5f6:	2c 96       	adiw	r28, 0x0c	; 12
     5f8:	0f b6       	in	r0, 0x3f	; 63
     5fa:	f8 94       	cli
     5fc:	de bf       	out	0x3e, r29	; 62
     5fe:	0f be       	out	0x3f, r0	; 63
     600:	cd bf       	out	0x3d, r28	; 61
     602:	df 91       	pop	r29
     604:	cf 91       	pop	r28
     606:	1f 91       	pop	r17
     608:	0f 91       	pop	r16
     60a:	ff 90       	pop	r15
     60c:	08 95       	ret

0000060e <set_SS_low>:
#include "spi_driver.h"
#include <util/delay.h>

void set_SS_low(){
	//Setter SS til 0
	PORTB &= ~(1<<PB4);
     60e:	88 b3       	in	r24, 0x18	; 24
     610:	8f 7e       	andi	r24, 0xEF	; 239
     612:	88 bb       	out	0x18, r24	; 24
     614:	08 95       	ret

00000616 <set_SS_high>:
}

void set_SS_high(){
	//Setter SS til 1
	PORTB |= (1<<PB4);
     616:	88 b3       	in	r24, 0x18	; 24
     618:	80 61       	ori	r24, 0x10	; 16
     61a:	88 bb       	out	0x18, r24	; 24
     61c:	08 95       	ret

0000061e <SPI_init>:
}

void SPI_init(){
	// input = 0, output = 1
	//Setter MOSI, SCK og SS til output
	DDRB |= (1<<PB4)|(1<<PB5)|(1<<PB7);
     61e:	87 b3       	in	r24, 0x17	; 23
     620:	80 6b       	ori	r24, 0xB0	; 176
     622:	87 bb       	out	0x17, r24	; 23
	DDRB &= ~(1<<PB6);
     624:	87 b3       	in	r24, 0x17	; 23
     626:	8f 7b       	andi	r24, 0xBF	; 191
     628:	87 bb       	out	0x17, r24	; 23
	//Enable SPI, Master, setter klokke til fck/16
	SPCR = (1<<SPE) | (1<<MSTR) | (1<<SPR0);
     62a:	81 e5       	ldi	r24, 0x51	; 81
     62c:	8d b9       	out	0x0d, r24	; 13
	//Setter modus til SPI
	// kommenterte ut 14:47 onsdag 12.10
	SPCR &= ~(1<<CPOL);
     62e:	8d b1       	in	r24, 0x0d	; 13
     630:	87 7f       	andi	r24, 0xF7	; 247
     632:	8d b9       	out	0x0d, r24	; 13
	SPCR &= ~(1<<CPHA);
     634:	8d b1       	in	r24, 0x0d	; 13
     636:	8b 7f       	andi	r24, 0xFB	; 251
     638:	8d b9       	out	0x0d, r24	; 13
	//Setter SS til 1
	//PORTB |= (1<<PB4);
	set_SS_high();
     63a:	0e 94 0b 03 	call	0x616	; 0x616 <set_SS_high>
     63e:	08 95       	ret

00000640 <SPI_send>:
}


void SPI_send(uint8_t data){
	//Start transmission
	SPDR = data;
     640:	8f b9       	out	0x0f, r24	; 15
	
	//venter på at transmision skal fullføres 
	while (!(SPSR & (1<<SPIF))){
     642:	77 9b       	sbis	0x0e, 7	; 14
     644:	fe cf       	rjmp	.-4      	; 0x642 <SPI_send+0x2>
	
	MCP_RXF4EID0 brukes i SPI_send mellom mcp_read(CANSTAT) og mcp_read(CANCTRL) i mcp_init() og etter mcp_read(CANCTRL) igjen -> er det dummyen??
	- glem det, var dummy 
	SPDR er 0!!!!!!!!!!!!!!!!!!!!!!!!!!!!!!!!!!! wtf??
	*/
}
     646:	08 95       	ret

00000648 <SPI_read>:

uint8_t SPI_read(){
	//Legger en dummy byte på SPDR registeret og sender dette til CAN, får da tilbake det som lå på registere til CAN. 
	uint8_t dummy = 0x11;
	SPI_send(dummy);
     648:	81 e1       	ldi	r24, 0x11	; 17
     64a:	0e 94 20 03 	call	0x640	; 0x640 <SPI_send>
	return SPDR;
     64e:	8f b1       	in	r24, 0x0f	; 15
}
     650:	08 95       	ret

00000652 <menu_init>:

#include "menu.h"

int arrow_page = 1; 

void menu_init(Menu menu_x){
     652:	0f 93       	push	r16
     654:	1f 93       	push	r17
     656:	cf 93       	push	r28
     658:	df 93       	push	r29
     65a:	cd b7       	in	r28, 0x3d	; 61
     65c:	de b7       	in	r29, 0x3e	; 62
	OLED_init();
     65e:	0e 94 a5 03 	call	0x74a	; 0x74a <OLED_init>
	OLED_reset();
     662:	0e 94 34 04 	call	0x868	; 0x868 <OLED_reset>
	
	for (int i = 0; i < menu_x.length; i++){
     666:	00 e0       	ldi	r16, 0x00	; 0
     668:	10 e0       	ldi	r17, 0x00	; 0
     66a:	15 c0       	rjmp	.+42     	; 0x696 <menu_init+0x44>
		OLED_pos(i, 16);
     66c:	60 e1       	ldi	r22, 0x10	; 16
     66e:	80 2f       	mov	r24, r16
     670:	0e 94 ee 03 	call	0x7dc	; 0x7dc <OLED_pos>
		OLED_print_string(menu_x.choices[i]);
     674:	c8 01       	movw	r24, r16
     676:	82 95       	swap	r24
     678:	92 95       	swap	r25
     67a:	90 7f       	andi	r25, 0xF0	; 240
     67c:	98 27       	eor	r25, r24
     67e:	80 7f       	andi	r24, 0xF0	; 240
     680:	98 27       	eor	r25, r24
     682:	27 e0       	ldi	r18, 0x07	; 7
     684:	30 e0       	ldi	r19, 0x00	; 0
     686:	2c 0f       	add	r18, r28
     688:	3d 1f       	adc	r19, r29
     68a:	82 0f       	add	r24, r18
     68c:	93 1f       	adc	r25, r19
     68e:	0e 94 6d 04 	call	0x8da	; 0x8da <OLED_print_string>

void menu_init(Menu menu_x){
	OLED_init();
	OLED_reset();
	
	for (int i = 0; i < menu_x.length; i++){
     692:	0f 5f       	subi	r16, 0xFF	; 255
     694:	1f 4f       	sbci	r17, 0xFF	; 255
     696:	c9 57       	subi	r28, 0x79	; 121
     698:	df 4f       	sbci	r29, 0xFF	; 255
     69a:	88 81       	ld	r24, Y
     69c:	99 81       	ldd	r25, Y+1	; 0x01
     69e:	c7 58       	subi	r28, 0x87	; 135
     6a0:	d0 40       	sbci	r29, 0x00	; 0
     6a2:	08 17       	cp	r16, r24
     6a4:	19 07       	cpc	r17, r25
     6a6:	14 f3       	brlt	.-60     	; 0x66c <menu_init+0x1a>
		OLED_pos(i, 16);
		OLED_print_string(menu_x.choices[i]);
	}
	print_solid_circle(arrow_page, 0);
     6a8:	60 e0       	ldi	r22, 0x00	; 0
     6aa:	80 91 06 01 	lds	r24, 0x0106	; 0x800106 <arrow_page>
     6ae:	0e 94 07 04 	call	0x80e	; 0x80e <print_solid_circle>
	
}
     6b2:	df 91       	pop	r29
     6b4:	cf 91       	pop	r28
     6b6:	1f 91       	pop	r17
     6b8:	0f 91       	pop	r16
     6ba:	08 95       	ret

000006bc <multifunction_init>:
 *  Author: ingebobl
 */ 

#include "multifunction.h"

void multifunction_init(){
     6bc:	cf 93       	push	r28
     6be:	df 93       	push	r29
     6c0:	cd b7       	in	r28, 0x3d	; 61
     6c2:	de b7       	in	r29, 0x3e	; 62
     6c4:	c2 58       	subi	r28, 0x82	; 130
     6c6:	d1 09       	sbc	r29, r1
     6c8:	0f b6       	in	r0, 0x3f	; 63
     6ca:	f8 94       	cli
     6cc:	de bf       	out	0x3e, r29	; 62
     6ce:	0f be       	out	0x3f, r0	; 63
     6d0:	cd bf       	out	0x3d, r28	; 61
	adc_init();
     6d2:	0e 94 8f 04 	call	0x91e	; 0x91e <adc_init>
	//Joy-stick button:
	
	DDRB &= ~(1 << DDB0); // Sette PB0 til input
     6d6:	87 b3       	in	r24, 0x17	; 23
     6d8:	8e 7f       	andi	r24, 0xFE	; 254
     6da:	87 bb       	out	0x17, r24	; 23
	PORTB |= (1 << PINB0);	// hva gjør denne?
     6dc:	88 b3       	in	r24, 0x18	; 24
     6de:	81 60       	ori	r24, 0x01	; 1
     6e0:	88 bb       	out	0x18, r24	; 24
	
	calibrate_joy_stick();
     6e2:	0e 94 c9 04 	call	0x992	; 0x992 <calibrate_joy_stick>
	//Legge til initialisering av sliderknappene
	
	OLED_init();
     6e6:	0e 94 a5 03 	call	0x74a	; 0x74a <OLED_init>
	
	Menu main_menu = {
     6ea:	82 e8       	ldi	r24, 0x82	; 130
     6ec:	e4 e1       	ldi	r30, 0x14	; 20
     6ee:	f1 e0       	ldi	r31, 0x01	; 1
     6f0:	de 01       	movw	r26, r28
     6f2:	11 96       	adiw	r26, 0x01	; 1
     6f4:	01 90       	ld	r0, Z+
     6f6:	0d 92       	st	X+, r0
     6f8:	8a 95       	dec	r24
     6fa:	e1 f7       	brne	.-8      	; 0x6f4 <multifunction_init+0x38>
		.choices = {"Tabataka boom", "Tabtata", "Tabayta", "Tabratata", "Feliz Tabatad"},
		.length = 5
	};*/
	
	//Menu current_menu = main_menu;
	menu_init(main_menu);
     6fc:	8d b7       	in	r24, 0x3d	; 61
     6fe:	9e b7       	in	r25, 0x3e	; 62
     700:	82 58       	subi	r24, 0x82	; 130
     702:	91 09       	sbc	r25, r1
     704:	0f b6       	in	r0, 0x3f	; 63
     706:	f8 94       	cli
     708:	9e bf       	out	0x3e, r25	; 62
     70a:	0f be       	out	0x3f, r0	; 63
     70c:	8d bf       	out	0x3d, r24	; 61
     70e:	ad b7       	in	r26, 0x3d	; 61
     710:	be b7       	in	r27, 0x3e	; 62
     712:	11 96       	adiw	r26, 0x01	; 1
     714:	82 e8       	ldi	r24, 0x82	; 130
     716:	fe 01       	movw	r30, r28
     718:	31 96       	adiw	r30, 0x01	; 1
     71a:	01 90       	ld	r0, Z+
     71c:	0d 92       	st	X+, r0
     71e:	8a 95       	dec	r24
     720:	e1 f7       	brne	.-8      	; 0x71a <multifunction_init+0x5e>
     722:	0e 94 29 03 	call	0x652	; 0x652 <menu_init>
     726:	0f b6       	in	r0, 0x3f	; 63
     728:	f8 94       	cli
     72a:	de bf       	out	0x3e, r29	; 62
     72c:	0f be       	out	0x3f, r0	; 63
     72e:	cd bf       	out	0x3d, r28	; 61
     730:	ce 57       	subi	r28, 0x7E	; 126
     732:	df 4f       	sbci	r29, 0xFF	; 255
     734:	0f b6       	in	r0, 0x3f	; 63
     736:	f8 94       	cli
     738:	de bf       	out	0x3e, r29	; 62
     73a:	0f be       	out	0x3f, r0	; 63
     73c:	cd bf       	out	0x3d, r28	; 61
     73e:	df 91       	pop	r29
     740:	cf 91       	pop	r28
     742:	08 95       	ret

00000744 <OLED_write_command>:
	if (page > 7 && page < 0){
		return 0;
	}
	OLED_pos(page, 0);
	return 0;
}
     744:	80 93 00 10 	sts	0x1000, r24	; 0x801000 <__bss_end+0xcaa>
     748:	08 95       	ret

0000074a <OLED_init>:
     74a:	8e ea       	ldi	r24, 0xAE	; 174
     74c:	0e 94 a2 03 	call	0x744	; 0x744 <OLED_write_command>
     750:	81 ea       	ldi	r24, 0xA1	; 161
     752:	0e 94 a2 03 	call	0x744	; 0x744 <OLED_write_command>
     756:	8a ed       	ldi	r24, 0xDA	; 218
     758:	0e 94 a2 03 	call	0x744	; 0x744 <OLED_write_command>
     75c:	82 e1       	ldi	r24, 0x12	; 18
     75e:	0e 94 a2 03 	call	0x744	; 0x744 <OLED_write_command>
     762:	88 ec       	ldi	r24, 0xC8	; 200
     764:	0e 94 a2 03 	call	0x744	; 0x744 <OLED_write_command>
     768:	88 ea       	ldi	r24, 0xA8	; 168
     76a:	0e 94 a2 03 	call	0x744	; 0x744 <OLED_write_command>
     76e:	8f e3       	ldi	r24, 0x3F	; 63
     770:	0e 94 a2 03 	call	0x744	; 0x744 <OLED_write_command>
     774:	85 ed       	ldi	r24, 0xD5	; 213
     776:	0e 94 a2 03 	call	0x744	; 0x744 <OLED_write_command>
     77a:	80 e8       	ldi	r24, 0x80	; 128
     77c:	0e 94 a2 03 	call	0x744	; 0x744 <OLED_write_command>
     780:	81 e8       	ldi	r24, 0x81	; 129
     782:	0e 94 a2 03 	call	0x744	; 0x744 <OLED_write_command>
     786:	80 e5       	ldi	r24, 0x50	; 80
     788:	0e 94 a2 03 	call	0x744	; 0x744 <OLED_write_command>
     78c:	89 ed       	ldi	r24, 0xD9	; 217
     78e:	0e 94 a2 03 	call	0x744	; 0x744 <OLED_write_command>
     792:	81 e2       	ldi	r24, 0x21	; 33
     794:	0e 94 a2 03 	call	0x744	; 0x744 <OLED_write_command>
     798:	80 e2       	ldi	r24, 0x20	; 32
     79a:	0e 94 a2 03 	call	0x744	; 0x744 <OLED_write_command>
     79e:	80 e0       	ldi	r24, 0x00	; 0
     7a0:	0e 94 a2 03 	call	0x744	; 0x744 <OLED_write_command>
     7a4:	8b ed       	ldi	r24, 0xDB	; 219
     7a6:	0e 94 a2 03 	call	0x744	; 0x744 <OLED_write_command>
     7aa:	80 e3       	ldi	r24, 0x30	; 48
     7ac:	0e 94 a2 03 	call	0x744	; 0x744 <OLED_write_command>
     7b0:	8d ea       	ldi	r24, 0xAD	; 173
     7b2:	0e 94 a2 03 	call	0x744	; 0x744 <OLED_write_command>
     7b6:	80 e0       	ldi	r24, 0x00	; 0
     7b8:	0e 94 a2 03 	call	0x744	; 0x744 <OLED_write_command>
     7bc:	80 e4       	ldi	r24, 0x40	; 64
     7be:	0e 94 a2 03 	call	0x744	; 0x744 <OLED_write_command>
     7c2:	84 ea       	ldi	r24, 0xA4	; 164
     7c4:	0e 94 a2 03 	call	0x744	; 0x744 <OLED_write_command>
     7c8:	86 ea       	ldi	r24, 0xA6	; 166
     7ca:	0e 94 a2 03 	call	0x744	; 0x744 <OLED_write_command>
     7ce:	8f ea       	ldi	r24, 0xAF	; 175
     7d0:	0e 94 a2 03 	call	0x744	; 0x744 <OLED_write_command>
     7d4:	08 95       	ret

000007d6 <OLED_write_data>:
     7d6:	80 93 00 12 	sts	0x1200, r24	; 0x801200 <__bss_end+0xeaa>
     7da:	08 95       	ret

000007dc <OLED_pos>:
     7dc:	cf 93       	push	r28
     7de:	df 93       	push	r29
     7e0:	c8 2f       	mov	r28, r24
     7e2:	d6 2f       	mov	r29, r22
     7e4:	81 e2       	ldi	r24, 0x21	; 33
     7e6:	0e 94 a2 03 	call	0x744	; 0x744 <OLED_write_command>
     7ea:	8d 2f       	mov	r24, r29
     7ec:	0e 94 a2 03 	call	0x744	; 0x744 <OLED_write_command>
     7f0:	8f e7       	ldi	r24, 0x7F	; 127
     7f2:	0e 94 a2 03 	call	0x744	; 0x744 <OLED_write_command>
     7f6:	82 e2       	ldi	r24, 0x22	; 34
     7f8:	0e 94 a2 03 	call	0x744	; 0x744 <OLED_write_command>
     7fc:	8c 2f       	mov	r24, r28
     7fe:	0e 94 a2 03 	call	0x744	; 0x744 <OLED_write_command>
     802:	87 e0       	ldi	r24, 0x07	; 7
     804:	0e 94 a2 03 	call	0x744	; 0x744 <OLED_write_command>
     808:	df 91       	pop	r29
     80a:	cf 91       	pop	r28
     80c:	08 95       	ret

0000080e <print_solid_circle>:
     80e:	0e 94 ee 03 	call	0x7dc	; 0x7dc <OLED_pos>
     812:	88 e1       	ldi	r24, 0x18	; 24
     814:	0e 94 eb 03 	call	0x7d6	; 0x7d6 <OLED_write_data>
     818:	8e e7       	ldi	r24, 0x7E	; 126
     81a:	0e 94 eb 03 	call	0x7d6	; 0x7d6 <OLED_write_data>
     81e:	8e e7       	ldi	r24, 0x7E	; 126
     820:	0e 94 eb 03 	call	0x7d6	; 0x7d6 <OLED_write_data>
     824:	8f ef       	ldi	r24, 0xFF	; 255
     826:	0e 94 eb 03 	call	0x7d6	; 0x7d6 <OLED_write_data>
     82a:	8f ef       	ldi	r24, 0xFF	; 255
     82c:	0e 94 eb 03 	call	0x7d6	; 0x7d6 <OLED_write_data>
     830:	8e e7       	ldi	r24, 0x7E	; 126
     832:	0e 94 eb 03 	call	0x7d6	; 0x7d6 <OLED_write_data>
     836:	8e e7       	ldi	r24, 0x7E	; 126
     838:	0e 94 eb 03 	call	0x7d6	; 0x7d6 <OLED_write_data>
     83c:	88 e1       	ldi	r24, 0x18	; 24
     83e:	0e 94 eb 03 	call	0x7d6	; 0x7d6 <OLED_write_data>
     842:	08 95       	ret

00000844 <OLED_clear_line>:
     844:	cf 93       	push	r28
     846:	df 93       	push	r29
     848:	60 e0       	ldi	r22, 0x00	; 0
     84a:	0e 94 ee 03 	call	0x7dc	; 0x7dc <OLED_pos>
     84e:	c0 e0       	ldi	r28, 0x00	; 0
     850:	d0 e0       	ldi	r29, 0x00	; 0
     852:	04 c0       	rjmp	.+8      	; 0x85c <OLED_clear_line+0x18>
     854:	80 e0       	ldi	r24, 0x00	; 0
     856:	0e 94 eb 03 	call	0x7d6	; 0x7d6 <OLED_write_data>
     85a:	21 96       	adiw	r28, 0x01	; 1
     85c:	c0 38       	cpi	r28, 0x80	; 128
     85e:	d1 05       	cpc	r29, r1
     860:	cc f3       	brlt	.-14     	; 0x854 <OLED_clear_line+0x10>
     862:	df 91       	pop	r29
     864:	cf 91       	pop	r28
     866:	08 95       	ret

00000868 <OLED_reset>:
     868:	cf 93       	push	r28
     86a:	df 93       	push	r29
     86c:	60 e0       	ldi	r22, 0x00	; 0
     86e:	80 e0       	ldi	r24, 0x00	; 0
     870:	0e 94 ee 03 	call	0x7dc	; 0x7dc <OLED_pos>
     874:	c0 e0       	ldi	r28, 0x00	; 0
     876:	d0 e0       	ldi	r29, 0x00	; 0
     878:	04 c0       	rjmp	.+8      	; 0x882 <OLED_reset+0x1a>
     87a:	8c 2f       	mov	r24, r28
     87c:	0e 94 22 04 	call	0x844	; 0x844 <OLED_clear_line>
     880:	21 96       	adiw	r28, 0x01	; 1
     882:	c8 30       	cpi	r28, 0x08	; 8
     884:	d1 05       	cpc	r29, r1
     886:	cc f3       	brlt	.-14     	; 0x87a <OLED_reset+0x12>
     888:	60 e0       	ldi	r22, 0x00	; 0
     88a:	80 e0       	ldi	r24, 0x00	; 0
     88c:	0e 94 ee 03 	call	0x7dc	; 0x7dc <OLED_pos>
     890:	df 91       	pop	r29
     892:	cf 91       	pop	r28
     894:	08 95       	ret

00000896 <OLED_print_char>:

void OLED_print_char(char* c){
     896:	0f 93       	push	r16
     898:	1f 93       	push	r17
     89a:	cf 93       	push	r28
     89c:	df 93       	push	r29
     89e:	8c 01       	movw	r16, r24
	unsigned char byte;
	for (int i = 0; i < 8; i++){
     8a0:	c0 e0       	ldi	r28, 0x00	; 0
     8a2:	d0 e0       	ldi	r29, 0x00	; 0
     8a4:	12 c0       	rjmp	.+36     	; 0x8ca <OLED_print_char+0x34>
		byte = pgm_read_byte(&(font8[*c-32][i])); //Font starts on char value 32 in ASCII-table
     8a6:	d8 01       	movw	r26, r16
     8a8:	ec 91       	ld	r30, X
     8aa:	f0 e0       	ldi	r31, 0x00	; 0
     8ac:	b0 97       	sbiw	r30, 0x20	; 32
     8ae:	ee 0f       	add	r30, r30
     8b0:	ff 1f       	adc	r31, r31
     8b2:	ee 0f       	add	r30, r30
     8b4:	ff 1f       	adc	r31, r31
     8b6:	ee 0f       	add	r30, r30
     8b8:	ff 1f       	adc	r31, r31
     8ba:	ec 0f       	add	r30, r28
     8bc:	fd 1f       	adc	r31, r29
     8be:	e0 59       	subi	r30, 0x90	; 144
     8c0:	ff 4f       	sbci	r31, 0xFF	; 255
     8c2:	84 91       	lpm	r24, Z
		OLED_write_data(byte);
     8c4:	0e 94 eb 03 	call	0x7d6	; 0x7d6 <OLED_write_data>
	return 0;
}

void OLED_print_char(char* c){
	unsigned char byte;
	for (int i = 0; i < 8; i++){
     8c8:	21 96       	adiw	r28, 0x01	; 1
     8ca:	c8 30       	cpi	r28, 0x08	; 8
     8cc:	d1 05       	cpc	r29, r1
     8ce:	5c f3       	brlt	.-42     	; 0x8a6 <OLED_print_char+0x10>
		byte = pgm_read_byte(&(font8[*c-32][i])); //Font starts on char value 32 in ASCII-table
		OLED_write_data(byte);
	}
}
     8d0:	df 91       	pop	r29
     8d2:	cf 91       	pop	r28
     8d4:	1f 91       	pop	r17
     8d6:	0f 91       	pop	r16
     8d8:	08 95       	ret

000008da <OLED_print_string>:

void OLED_print_string(char str[]){
     8da:	ef 92       	push	r14
     8dc:	ff 92       	push	r15
     8de:	0f 93       	push	r16
     8e0:	1f 93       	push	r17
     8e2:	cf 93       	push	r28
     8e4:	df 93       	push	r29
     8e6:	7c 01       	movw	r14, r24
	int length = strlen(str);
     8e8:	fc 01       	movw	r30, r24
     8ea:	01 90       	ld	r0, Z+
     8ec:	00 20       	and	r0, r0
     8ee:	e9 f7       	brne	.-6      	; 0x8ea <OLED_print_string+0x10>
     8f0:	31 97       	sbiw	r30, 0x01	; 1
     8f2:	8f 01       	movw	r16, r30
     8f4:	08 1b       	sub	r16, r24
     8f6:	19 0b       	sbc	r17, r25
	for (int i = 0; i < length; i++){
     8f8:	c0 e0       	ldi	r28, 0x00	; 0
     8fa:	d0 e0       	ldi	r29, 0x00	; 0
     8fc:	06 c0       	rjmp	.+12     	; 0x90a <OLED_print_string+0x30>
		OLED_print_char(str + i);
     8fe:	c7 01       	movw	r24, r14
     900:	8c 0f       	add	r24, r28
     902:	9d 1f       	adc	r25, r29
     904:	0e 94 4b 04 	call	0x896	; 0x896 <OLED_print_char>
	}
}

void OLED_print_string(char str[]){
	int length = strlen(str);
	for (int i = 0; i < length; i++){
     908:	21 96       	adiw	r28, 0x01	; 1
     90a:	c0 17       	cp	r28, r16
     90c:	d1 07       	cpc	r29, r17
     90e:	bc f3       	brlt	.-18     	; 0x8fe <OLED_print_string+0x24>
		OLED_print_char(str + i);
	}
     910:	df 91       	pop	r29
     912:	cf 91       	pop	r28
     914:	1f 91       	pop	r17
     916:	0f 91       	pop	r16
     918:	ff 90       	pop	r15
     91a:	ef 90       	pop	r14
     91c:	08 95       	ret

0000091e <adc_init>:
	return (ADC_output){data_channel_0, data_channel_1, data_channel_2, data_channel_3};
}

int to_percent(uint8_t pos_in_bit){
	return (int)pos_in_bit  * ((float)200) / ((float)256) - 100;		// Skalering: hele bredden er 200% med 0% i midten og -100% og 100% i hver sin ende
}
     91e:	81 b3       	in	r24, 0x11	; 17
     920:	80 62       	ori	r24, 0x20	; 32
     922:	81 bb       	out	0x11, r24	; 17
     924:	8f b5       	in	r24, 0x2f	; 47
     926:	81 60       	ori	r24, 0x01	; 1
     928:	8f bd       	out	0x2f, r24	; 47
     92a:	8f b5       	in	r24, 0x2f	; 47
     92c:	82 60       	ori	r24, 0x02	; 2
     92e:	8f bd       	out	0x2f, r24	; 47
     930:	8e b5       	in	r24, 0x2e	; 46
     932:	88 60       	ori	r24, 0x08	; 8
     934:	8e bd       	out	0x2e, r24	; 46
     936:	8e b5       	in	r24, 0x2e	; 46
     938:	80 61       	ori	r24, 0x10	; 16
     93a:	8e bd       	out	0x2e, r24	; 46
     93c:	8f b5       	in	r24, 0x2f	; 47
     93e:	8f 77       	andi	r24, 0x7F	; 127
     940:	8f bd       	out	0x2f, r24	; 47
     942:	8f b5       	in	r24, 0x2f	; 47
     944:	80 64       	ori	r24, 0x40	; 64
     946:	8f bd       	out	0x2f, r24	; 47
     948:	8e b5       	in	r24, 0x2e	; 46
     94a:	8b 7f       	andi	r24, 0xFB	; 251
     94c:	8e bd       	out	0x2e, r24	; 46
     94e:	8e b5       	in	r24, 0x2e	; 46
     950:	8d 7f       	andi	r24, 0xFD	; 253
     952:	8e bd       	out	0x2e, r24	; 46
     954:	8e b5       	in	r24, 0x2e	; 46
     956:	81 60       	ori	r24, 0x01	; 1
     958:	8e bd       	out	0x2e, r24	; 46
     95a:	8f b5       	in	r24, 0x2f	; 47
     95c:	87 7f       	andi	r24, 0xF7	; 247
     95e:	8f bd       	out	0x2f, r24	; 47
     960:	1b bc       	out	0x2b, r1	; 43
     962:	81 e0       	ldi	r24, 0x01	; 1
     964:	8a bd       	out	0x2a, r24	; 42
     966:	81 b3       	in	r24, 0x11	; 17
     968:	8f 7e       	andi	r24, 0xEF	; 239
     96a:	81 bb       	out	0x11, r24	; 17
     96c:	10 92 04 18 	sts	0x1804, r1	; 0x801804 <__bss_end+0x14ae>
     970:	10 92 08 18 	sts	0x1808, r1	; 0x801808 <__bss_end+0x14b2>
     974:	08 95       	ret

00000976 <adc_read>:
     976:	10 92 00 14 	sts	0x1400, r1	; 0x801400 <__bss_end+0x10aa>
     97a:	82 b3       	in	r24, 0x12	; 18
     97c:	80 71       	andi	r24, 0x10	; 16
     97e:	82 bb       	out	0x12, r24	; 18
     980:	81 11       	cpse	r24, r1
     982:	fb cf       	rjmp	.-10     	; 0x97a <adc_read+0x4>
     984:	e0 e0       	ldi	r30, 0x00	; 0
     986:	f4 e1       	ldi	r31, 0x14	; 20
     988:	60 81       	ld	r22, Z
     98a:	70 81       	ld	r23, Z
     98c:	80 81       	ld	r24, Z
     98e:	90 81       	ld	r25, Z
     990:	08 95       	ret

00000992 <calibrate_joy_stick>:


void calibrate_joy_stick(){
	ADC_output adc_output = adc_read();
     992:	0e 94 bb 04 	call	0x976	; 0x976 <adc_read>
	uint8_t x = adc_output.x_axis;
	uint8_t y = adc_output.y_axis;
	
	uint8_t* x_pos_offset = (uint8_t *) ( ADDRESS_SRAM + 4); 
	*x_pos_offset = x;
     996:	60 93 04 18 	sts	0x1804, r22	; 0x801804 <__bss_end+0x14ae>
	uint8_t* y_pos_offset = (uint8_t *) ( ADDRESS_SRAM + 8);
	*y_pos_offset = y;
     99a:	70 93 08 18 	sts	0x1808, r23	; 0x801808 <__bss_end+0x14b2>
     99e:	08 95       	ret

000009a0 <can_test>:
		_delay_ms(1000);
	}
}


void can_test(){
     9a0:	ef 92       	push	r14
     9a2:	ff 92       	push	r15
     9a4:	0f 93       	push	r16
     9a6:	1f 93       	push	r17
     9a8:	cf 93       	push	r28
     9aa:	df 93       	push	r29
     9ac:	cd b7       	in	r28, 0x3d	; 61
     9ae:	de b7       	in	r29, 0x3e	; 62
     9b0:	66 97       	sbiw	r28, 0x16	; 22
     9b2:	0f b6       	in	r0, 0x3f	; 63
     9b4:	f8 94       	cli
     9b6:	de bf       	out	0x3e, r29	; 62
     9b8:	0f be       	out	0x3f, r0	; 63
     9ba:	cd bf       	out	0x3d, r28	; 61
	Frame message;
	message.message_IDH = 0b10101010;
     9bc:	8a ea       	ldi	r24, 0xAA	; 170
     9be:	89 83       	std	Y+1, r24	; 0x01
	message.message_IDL = 0b00010000;
     9c0:	80 e1       	ldi	r24, 0x10	; 16
     9c2:	8a 83       	std	Y+2, r24	; 0x02
	message.data_lenght = 1; 
     9c4:	81 e0       	ldi	r24, 0x01	; 1
     9c6:	8b 83       	std	Y+3, r24	; 0x03
	message.data[0] = 0b11001100;
     9c8:	8c ec       	ldi	r24, 0xCC	; 204
     9ca:	8c 83       	std	Y+4, r24	; 0x04
	
	CAN_init();
     9cc:	0e 94 d3 01 	call	0x3a6	; 0x3a6 <CAN_init>
	
	CAN_transmit(message);
     9d0:	e9 80       	ldd	r14, Y+1	; 0x01
     9d2:	fa 80       	ldd	r15, Y+2	; 0x02
     9d4:	0b 81       	ldd	r16, Y+3	; 0x03
     9d6:	1c 81       	ldd	r17, Y+4	; 0x04
     9d8:	2d 81       	ldd	r18, Y+5	; 0x05
     9da:	3e 81       	ldd	r19, Y+6	; 0x06
     9dc:	4f 81       	ldd	r20, Y+7	; 0x07
     9de:	58 85       	ldd	r21, Y+8	; 0x08
     9e0:	69 85       	ldd	r22, Y+9	; 0x09
     9e2:	7a 85       	ldd	r23, Y+10	; 0x0a
     9e4:	8b 85       	ldd	r24, Y+11	; 0x0b
     9e6:	0e 94 e7 01 	call	0x3ce	; 0x3ce <CAN_transmit>
	#else
		//round up by default
		__ticks_dc = (uint32_t)(ceil(fabs(__tmp)));
	#endif

	__builtin_avr_delay_cycles(__ticks_dc);
     9ea:	2f ef       	ldi	r18, 0xFF	; 255
     9ec:	8f ef       	ldi	r24, 0xFF	; 255
     9ee:	9e e0       	ldi	r25, 0x0E	; 14
     9f0:	21 50       	subi	r18, 0x01	; 1
     9f2:	80 40       	sbci	r24, 0x00	; 0
     9f4:	90 40       	sbci	r25, 0x00	; 0
     9f6:	e1 f7       	brne	.-8      	; 0x9f0 <can_test+0x50>
     9f8:	00 c0       	rjmp	.+0      	; 0x9fa <can_test+0x5a>
     9fa:	00 00       	nop
	
	_delay_ms(1000);
	Frame recieved_message = CAN_recieve();
     9fc:	ce 01       	movw	r24, r28
     9fe:	0c 96       	adiw	r24, 0x0c	; 12
     a00:	0e 94 31 02 	call	0x462	; 0x462 <CAN_recieve>
	printf("Recieved_message: %d \n -------------------------- \n\r",recieved_message.data[0]);
     a04:	8f 85       	ldd	r24, Y+15	; 0x0f
     a06:	1f 92       	push	r1
     a08:	8f 93       	push	r24
     a0a:	85 ed       	ldi	r24, 0xD5	; 213
     a0c:	92 e0       	ldi	r25, 0x02	; 2
     a0e:	9f 93       	push	r25
     a10:	8f 93       	push	r24
     a12:	0e 94 03 06 	call	0xc06	; 0xc06 <printf>
	
}
     a16:	0f 90       	pop	r0
     a18:	0f 90       	pop	r0
     a1a:	0f 90       	pop	r0
     a1c:	0f 90       	pop	r0
     a1e:	66 96       	adiw	r28, 0x16	; 22
     a20:	0f b6       	in	r0, 0x3f	; 63
     a22:	f8 94       	cli
     a24:	de bf       	out	0x3e, r29	; 62
     a26:	0f be       	out	0x3f, r0	; 63
     a28:	cd bf       	out	0x3d, r28	; 61
     a2a:	df 91       	pop	r29
     a2c:	cf 91       	pop	r28
     a2e:	1f 91       	pop	r17
     a30:	0f 91       	pop	r16
     a32:	ff 90       	pop	r15
     a34:	ef 90       	pop	r14
     a36:	08 95       	ret

00000a38 <SPDR_test>:

void SPDR_test(){
     a38:	0f 93       	push	r16
     a3a:	1f 93       	push	r17
     a3c:	cf 93       	push	r28
     a3e:	df 93       	push	r29
	SPI_init();
     a40:	0e 94 0f 03 	call	0x61e	; 0x61e <SPI_init>

	set_SS_low();
     a44:	0e 94 07 03 	call	0x60e	; 0x60e <set_SS_low>
	char newData = 'b';
	SPDR = newData;
     a48:	82 e6       	ldi	r24, 0x62	; 98
     a4a:	8f b9       	out	0x0f, r24	; 15
     a4c:	2f ef       	ldi	r18, 0xFF	; 255
     a4e:	3f ef       	ldi	r19, 0xFF	; 255
     a50:	9e e0       	ldi	r25, 0x0E	; 14
     a52:	21 50       	subi	r18, 0x01	; 1
     a54:	30 40       	sbci	r19, 0x00	; 0
     a56:	90 40       	sbci	r25, 0x00	; 0
     a58:	e1 f7       	brne	.-8      	; 0xa52 <SPDR_test+0x1a>
     a5a:	00 c0       	rjmp	.+0      	; 0xa5c <SPDR_test+0x24>
     a5c:	00 00       	nop
	
	_delay_ms(1000);
	
	printf("newData: %d \n\r", newData);
     a5e:	1f 92       	push	r1
     a60:	8f 93       	push	r24
     a62:	0a e0       	ldi	r16, 0x0A	; 10
     a64:	13 e0       	ldi	r17, 0x03	; 3
     a66:	1f 93       	push	r17
     a68:	0f 93       	push	r16
     a6a:	0e 94 03 06 	call	0xc06	; 0xc06 <printf>
	printf("SPDR: %d \n\r", SPDR);
     a6e:	8f b1       	in	r24, 0x0f	; 15
     a70:	1f 92       	push	r1
     a72:	8f 93       	push	r24
     a74:	c9 e1       	ldi	r28, 0x19	; 25
     a76:	d3 e0       	ldi	r29, 0x03	; 3
     a78:	df 93       	push	r29
     a7a:	cf 93       	push	r28
     a7c:	0e 94 03 06 	call	0xc06	; 0xc06 <printf>
	
	newData = 'q';
	SPDR = newData;
     a80:	81 e7       	ldi	r24, 0x71	; 113
     a82:	8f b9       	out	0x0f, r24	; 15
	printf("newData: %d \n\r", newData);
     a84:	1f 92       	push	r1
     a86:	8f 93       	push	r24
     a88:	1f 93       	push	r17
     a8a:	0f 93       	push	r16
     a8c:	0e 94 03 06 	call	0xc06	; 0xc06 <printf>
	printf("SPDR: %d \n\r", SPDR);
     a90:	8f b1       	in	r24, 0x0f	; 15
     a92:	1f 92       	push	r1
     a94:	8f 93       	push	r24
     a96:	df 93       	push	r29
     a98:	cf 93       	push	r28
     a9a:	0e 94 03 06 	call	0xc06	; 0xc06 <printf>
	
	newData = 'a';
	SPDR = newData;
     a9e:	81 e6       	ldi	r24, 0x61	; 97
     aa0:	8f b9       	out	0x0f, r24	; 15
	printf("newData: %d \n\r", newData);
     aa2:	1f 92       	push	r1
     aa4:	8f 93       	push	r24
     aa6:	1f 93       	push	r17
     aa8:	0f 93       	push	r16
     aaa:	0e 94 03 06 	call	0xc06	; 0xc06 <printf>
	printf("SPDR: %d \n\r", SPDR);
     aae:	8f b1       	in	r24, 0x0f	; 15
     ab0:	1f 92       	push	r1
     ab2:	8f 93       	push	r24
     ab4:	df 93       	push	r29
     ab6:	cf 93       	push	r28
     ab8:	0e 94 03 06 	call	0xc06	; 0xc06 <printf>
	
	
	newData = 'l';
	SPDR = newData;
     abc:	8c e6       	ldi	r24, 0x6C	; 108
     abe:	8f b9       	out	0x0f, r24	; 15
	printf("newData: %d \n\r", newData);
     ac0:	1f 92       	push	r1
     ac2:	8f 93       	push	r24
     ac4:	1f 93       	push	r17
     ac6:	0f 93       	push	r16
     ac8:	0e 94 03 06 	call	0xc06	; 0xc06 <printf>
	printf("SPDR: %d \n\r", SPDR);
     acc:	8f b1       	in	r24, 0x0f	; 15
     ace:	1f 92       	push	r1
     ad0:	8f 93       	push	r24
     ad2:	df 93       	push	r29
     ad4:	cf 93       	push	r28
     ad6:	0e 94 03 06 	call	0xc06	; 0xc06 <printf>
	set_SS_high();
     ada:	2d b7       	in	r18, 0x3d	; 61
     adc:	3e b7       	in	r19, 0x3e	; 62
     ade:	20 5e       	subi	r18, 0xE0	; 224
     ae0:	3f 4f       	sbci	r19, 0xFF	; 255
     ae2:	0f b6       	in	r0, 0x3f	; 63
     ae4:	f8 94       	cli
     ae6:	3e bf       	out	0x3e, r19	; 62
     ae8:	0f be       	out	0x3f, r0	; 63
     aea:	2d bf       	out	0x3d, r18	; 61
     aec:	0e 94 0b 03 	call	0x616	; 0x616 <set_SS_high>
}
     af0:	df 91       	pop	r29
     af2:	cf 91       	pop	r28
     af4:	1f 91       	pop	r17
     af6:	0f 91       	pop	r16
     af8:	08 95       	ret

00000afa <uart_write>:

void uart_write(unsigned char letter){
	/*1. Sjekke om det er klart til å sende ny data
	2. sende ny data*/
	 
	while(!(UCSR0A & (1<<UDRE0))){
     afa:	5d 9b       	sbis	0x0b, 5	; 11
     afc:	fe cf       	rjmp	.-4      	; 0xafa <uart_write>
		
	}
	UDR0 = letter;
     afe:	8c b9       	out	0x0c, r24	; 12
     b00:	08 95       	ret

00000b02 <uart_read>:
}

unsigned char uart_read(){
	while (!(UCSR0A & (1 << RXC0))){
     b02:	5f 9b       	sbis	0x0b, 7	; 11
     b04:	fe cf       	rjmp	.-4      	; 0xb02 <uart_read>
		
	}
	return UDR0;
     b06:	8c b1       	in	r24, 0x0c	; 12
}
     b08:	08 95       	ret

00000b0a <uart_init>:

#include "uart.h"

void uart_init(unsigned int ubrr){
	//Set baud rate, divided into two registers
	UBRR0H = (unsigned char)(ubrr>>8); //high register, alt får egt plass på 8 bit så derfor blir det 0
     b0a:	90 bd       	out	0x20, r25	; 32
	UBRR0L = (unsigned char)ubrr; //low register
     b0c:	89 b9       	out	0x09, r24	; 9
				
	/* Enable receiver and transmitter 
	hvor mange bit data: man kan ha 5-9 bit, vi vil ha 8
	hvor mange stop-bit: 2 stk, pga ignorerer det første bitet*/
			
	UCSR0B = (1 << RXEN0) | (1 << TXEN0);
     b0e:	88 e1       	ldi	r24, 0x18	; 24
     b10:	8a b9       	out	0x0a, r24	; 10
	UCSR0C = (1 << URSEL0)|(1<< USBS0)|(3 << UCSZ00);
     b12:	8e e8       	ldi	r24, 0x8E	; 142
     b14:	80 bd       	out	0x20, r24	; 32
	
	fdevopen(uart_write, uart_read);
     b16:	61 e8       	ldi	r22, 0x81	; 129
     b18:	75 e0       	ldi	r23, 0x05	; 5
     b1a:	8d e7       	ldi	r24, 0x7D	; 125
     b1c:	95 e0       	ldi	r25, 0x05	; 5
     b1e:	0e 94 b8 05 	call	0xb70	; 0xb70 <fdevopen>
     b22:	08 95       	ret

00000b24 <xmem_init>:
 */
 
#include "xmem.h"

void xmem_init (void){
	MCUCR |= (1 << SRE); // Enable XMEM
     b24:	85 b7       	in	r24, 0x35	; 53
     b26:	80 68       	ori	r24, 0x80	; 128
     b28:	85 bf       	out	0x35, r24	; 53
	SFIOR |= (1 << XMM2); // Fjerner JTAG-bitsene fra external memory address, se side 32 i ATmega datablad
     b2a:	80 b7       	in	r24, 0x30	; 48
     b2c:	80 62       	ori	r24, 0x20	; 32
     b2e:	80 bf       	out	0x30, r24	; 48
     b30:	08 95       	ret

00000b32 <main>:
#include "node1/Multifunc_board/multifunction.h"
#include "node1/CAN_controller/can_driver.h"


int main(void){
	uart_init(MYUBRR);
     b32:	8f e1       	ldi	r24, 0x1F	; 31
     b34:	90 e0       	ldi	r25, 0x00	; 0
     b36:	0e 94 85 05 	call	0xb0a	; 0xb0a <uart_init>
	printf("\r\n\n\n\nStart test: \n\r");
     b3a:	85 e2       	ldi	r24, 0x25	; 37
     b3c:	93 e0       	ldi	r25, 0x03	; 3
     b3e:	9f 93       	push	r25
     b40:	8f 93       	push	r24
     b42:	0e 94 03 06 	call	0xc06	; 0xc06 <printf>
	xmem_init(); 
     b46:	0e 94 92 05 	call	0xb24	; 0xb24 <xmem_init>
	
	multifunction_init();
     b4a:	0e 94 5e 03 	call	0x6bc	; 0x6bc <multifunction_init>
	can_test();
     b4e:	0e 94 d0 04 	call	0x9a0	; 0x9a0 <can_test>
	
	
	SPDR_test();
     b52:	0e 94 1c 05 	call	0xa38	; 0xa38 <SPDR_test>
	
	
	printf("\r\n\n\nSlutt test: \n\r");		// \r gjør at man i putty begynner på neste linje (tabber ut linjen)
     b56:	89 e3       	ldi	r24, 0x39	; 57
     b58:	93 e0       	ldi	r25, 0x03	; 3
     b5a:	9f 93       	push	r25
     b5c:	8f 93       	push	r24
     b5e:	0e 94 03 06 	call	0xc06	; 0xc06 <printf>
     b62:	0f 90       	pop	r0
     b64:	0f 90       	pop	r0
     b66:	0f 90       	pop	r0
     b68:	0f 90       	pop	r0
		}
	}
	*/
	
	
}
     b6a:	80 e0       	ldi	r24, 0x00	; 0
     b6c:	90 e0       	ldi	r25, 0x00	; 0
     b6e:	08 95       	ret

00000b70 <fdevopen>:
     b70:	0f 93       	push	r16
     b72:	1f 93       	push	r17
     b74:	cf 93       	push	r28
     b76:	df 93       	push	r29
     b78:	00 97       	sbiw	r24, 0x00	; 0
     b7a:	31 f4       	brne	.+12     	; 0xb88 <fdevopen+0x18>
     b7c:	61 15       	cp	r22, r1
     b7e:	71 05       	cpc	r23, r1
     b80:	19 f4       	brne	.+6      	; 0xb88 <fdevopen+0x18>
     b82:	80 e0       	ldi	r24, 0x00	; 0
     b84:	90 e0       	ldi	r25, 0x00	; 0
     b86:	3a c0       	rjmp	.+116    	; 0xbfc <fdevopen+0x8c>
     b88:	8b 01       	movw	r16, r22
     b8a:	ec 01       	movw	r28, r24
     b8c:	6e e0       	ldi	r22, 0x0E	; 14
     b8e:	70 e0       	ldi	r23, 0x00	; 0
     b90:	81 e0       	ldi	r24, 0x01	; 1
     b92:	90 e0       	ldi	r25, 0x00	; 0
     b94:	0e 94 fa 07 	call	0xff4	; 0xff4 <calloc>
     b98:	fc 01       	movw	r30, r24
     b9a:	89 2b       	or	r24, r25
     b9c:	91 f3       	breq	.-28     	; 0xb82 <fdevopen+0x12>
     b9e:	80 e8       	ldi	r24, 0x80	; 128
     ba0:	83 83       	std	Z+3, r24	; 0x03
     ba2:	01 15       	cp	r16, r1
     ba4:	11 05       	cpc	r17, r1
     ba6:	71 f0       	breq	.+28     	; 0xbc4 <fdevopen+0x54>
     ba8:	13 87       	std	Z+11, r17	; 0x0b
     baa:	02 87       	std	Z+10, r16	; 0x0a
     bac:	81 e8       	ldi	r24, 0x81	; 129
     bae:	83 83       	std	Z+3, r24	; 0x03
     bb0:	80 91 4c 03 	lds	r24, 0x034C	; 0x80034c <__data_end>
     bb4:	90 91 4d 03 	lds	r25, 0x034D	; 0x80034d <__data_end+0x1>
     bb8:	89 2b       	or	r24, r25
     bba:	21 f4       	brne	.+8      	; 0xbc4 <fdevopen+0x54>
     bbc:	f0 93 4d 03 	sts	0x034D, r31	; 0x80034d <__data_end+0x1>
     bc0:	e0 93 4c 03 	sts	0x034C, r30	; 0x80034c <__data_end>
     bc4:	20 97       	sbiw	r28, 0x00	; 0
     bc6:	c9 f0       	breq	.+50     	; 0xbfa <fdevopen+0x8a>
     bc8:	d1 87       	std	Z+9, r29	; 0x09
     bca:	c0 87       	std	Z+8, r28	; 0x08
     bcc:	83 81       	ldd	r24, Z+3	; 0x03
     bce:	82 60       	ori	r24, 0x02	; 2
     bd0:	83 83       	std	Z+3, r24	; 0x03
     bd2:	80 91 4e 03 	lds	r24, 0x034E	; 0x80034e <__data_end+0x2>
     bd6:	90 91 4f 03 	lds	r25, 0x034F	; 0x80034f <__data_end+0x3>
     bda:	89 2b       	or	r24, r25
     bdc:	71 f4       	brne	.+28     	; 0xbfa <fdevopen+0x8a>
     bde:	f0 93 4f 03 	sts	0x034F, r31	; 0x80034f <__data_end+0x3>
     be2:	e0 93 4e 03 	sts	0x034E, r30	; 0x80034e <__data_end+0x2>
     be6:	80 91 50 03 	lds	r24, 0x0350	; 0x800350 <__data_end+0x4>
     bea:	90 91 51 03 	lds	r25, 0x0351	; 0x800351 <__data_end+0x5>
     bee:	89 2b       	or	r24, r25
     bf0:	21 f4       	brne	.+8      	; 0xbfa <fdevopen+0x8a>
     bf2:	f0 93 51 03 	sts	0x0351, r31	; 0x800351 <__data_end+0x5>
     bf6:	e0 93 50 03 	sts	0x0350, r30	; 0x800350 <__data_end+0x4>
     bfa:	cf 01       	movw	r24, r30
     bfc:	df 91       	pop	r29
     bfe:	cf 91       	pop	r28
     c00:	1f 91       	pop	r17
     c02:	0f 91       	pop	r16
     c04:	08 95       	ret

00000c06 <printf>:
     c06:	a0 e0       	ldi	r26, 0x00	; 0
     c08:	b0 e0       	ldi	r27, 0x00	; 0
     c0a:	e9 e0       	ldi	r30, 0x09	; 9
     c0c:	f6 e0       	ldi	r31, 0x06	; 6
     c0e:	0c 94 fe 09 	jmp	0x13fc	; 0x13fc <__prologue_saves__+0x20>
     c12:	ae 01       	movw	r20, r28
     c14:	4b 5f       	subi	r20, 0xFB	; 251
     c16:	5f 4f       	sbci	r21, 0xFF	; 255
     c18:	fa 01       	movw	r30, r20
     c1a:	61 91       	ld	r22, Z+
     c1c:	71 91       	ld	r23, Z+
     c1e:	af 01       	movw	r20, r30
     c20:	80 91 4e 03 	lds	r24, 0x034E	; 0x80034e <__data_end+0x2>
     c24:	90 91 4f 03 	lds	r25, 0x034F	; 0x80034f <__data_end+0x3>
     c28:	0e 94 19 06 	call	0xc32	; 0xc32 <vfprintf>
     c2c:	e2 e0       	ldi	r30, 0x02	; 2
     c2e:	0c 94 1a 0a 	jmp	0x1434	; 0x1434 <__epilogue_restores__+0x20>

00000c32 <vfprintf>:
     c32:	ab e0       	ldi	r26, 0x0B	; 11
     c34:	b0 e0       	ldi	r27, 0x00	; 0
     c36:	ef e1       	ldi	r30, 0x1F	; 31
     c38:	f6 e0       	ldi	r31, 0x06	; 6
     c3a:	0c 94 ee 09 	jmp	0x13dc	; 0x13dc <__prologue_saves__>
     c3e:	6c 01       	movw	r12, r24
     c40:	7b 01       	movw	r14, r22
     c42:	8a 01       	movw	r16, r20
     c44:	fc 01       	movw	r30, r24
     c46:	17 82       	std	Z+7, r1	; 0x07
     c48:	16 82       	std	Z+6, r1	; 0x06
     c4a:	83 81       	ldd	r24, Z+3	; 0x03
     c4c:	81 ff       	sbrs	r24, 1
     c4e:	cc c1       	rjmp	.+920    	; 0xfe8 <vfprintf+0x3b6>
     c50:	ce 01       	movw	r24, r28
     c52:	01 96       	adiw	r24, 0x01	; 1
     c54:	3c 01       	movw	r6, r24
     c56:	f6 01       	movw	r30, r12
     c58:	93 81       	ldd	r25, Z+3	; 0x03
     c5a:	f7 01       	movw	r30, r14
     c5c:	93 fd       	sbrc	r25, 3
     c5e:	85 91       	lpm	r24, Z+
     c60:	93 ff       	sbrs	r25, 3
     c62:	81 91       	ld	r24, Z+
     c64:	7f 01       	movw	r14, r30
     c66:	88 23       	and	r24, r24
     c68:	09 f4       	brne	.+2      	; 0xc6c <vfprintf+0x3a>
     c6a:	ba c1       	rjmp	.+884    	; 0xfe0 <vfprintf+0x3ae>
     c6c:	85 32       	cpi	r24, 0x25	; 37
     c6e:	39 f4       	brne	.+14     	; 0xc7e <vfprintf+0x4c>
     c70:	93 fd       	sbrc	r25, 3
     c72:	85 91       	lpm	r24, Z+
     c74:	93 ff       	sbrs	r25, 3
     c76:	81 91       	ld	r24, Z+
     c78:	7f 01       	movw	r14, r30
     c7a:	85 32       	cpi	r24, 0x25	; 37
     c7c:	29 f4       	brne	.+10     	; 0xc88 <vfprintf+0x56>
     c7e:	b6 01       	movw	r22, r12
     c80:	90 e0       	ldi	r25, 0x00	; 0
     c82:	0e 94 54 09 	call	0x12a8	; 0x12a8 <fputc>
     c86:	e7 cf       	rjmp	.-50     	; 0xc56 <vfprintf+0x24>
     c88:	91 2c       	mov	r9, r1
     c8a:	21 2c       	mov	r2, r1
     c8c:	31 2c       	mov	r3, r1
     c8e:	ff e1       	ldi	r31, 0x1F	; 31
     c90:	f3 15       	cp	r31, r3
     c92:	d8 f0       	brcs	.+54     	; 0xcca <vfprintf+0x98>
     c94:	8b 32       	cpi	r24, 0x2B	; 43
     c96:	79 f0       	breq	.+30     	; 0xcb6 <vfprintf+0x84>
     c98:	38 f4       	brcc	.+14     	; 0xca8 <vfprintf+0x76>
     c9a:	80 32       	cpi	r24, 0x20	; 32
     c9c:	79 f0       	breq	.+30     	; 0xcbc <vfprintf+0x8a>
     c9e:	83 32       	cpi	r24, 0x23	; 35
     ca0:	a1 f4       	brne	.+40     	; 0xcca <vfprintf+0x98>
     ca2:	23 2d       	mov	r18, r3
     ca4:	20 61       	ori	r18, 0x10	; 16
     ca6:	1d c0       	rjmp	.+58     	; 0xce2 <vfprintf+0xb0>
     ca8:	8d 32       	cpi	r24, 0x2D	; 45
     caa:	61 f0       	breq	.+24     	; 0xcc4 <vfprintf+0x92>
     cac:	80 33       	cpi	r24, 0x30	; 48
     cae:	69 f4       	brne	.+26     	; 0xcca <vfprintf+0x98>
     cb0:	23 2d       	mov	r18, r3
     cb2:	21 60       	ori	r18, 0x01	; 1
     cb4:	16 c0       	rjmp	.+44     	; 0xce2 <vfprintf+0xb0>
     cb6:	83 2d       	mov	r24, r3
     cb8:	82 60       	ori	r24, 0x02	; 2
     cba:	38 2e       	mov	r3, r24
     cbc:	e3 2d       	mov	r30, r3
     cbe:	e4 60       	ori	r30, 0x04	; 4
     cc0:	3e 2e       	mov	r3, r30
     cc2:	2a c0       	rjmp	.+84     	; 0xd18 <vfprintf+0xe6>
     cc4:	f3 2d       	mov	r31, r3
     cc6:	f8 60       	ori	r31, 0x08	; 8
     cc8:	1d c0       	rjmp	.+58     	; 0xd04 <vfprintf+0xd2>
     cca:	37 fc       	sbrc	r3, 7
     ccc:	2d c0       	rjmp	.+90     	; 0xd28 <vfprintf+0xf6>
     cce:	20 ed       	ldi	r18, 0xD0	; 208
     cd0:	28 0f       	add	r18, r24
     cd2:	2a 30       	cpi	r18, 0x0A	; 10
     cd4:	40 f0       	brcs	.+16     	; 0xce6 <vfprintf+0xb4>
     cd6:	8e 32       	cpi	r24, 0x2E	; 46
     cd8:	b9 f4       	brne	.+46     	; 0xd08 <vfprintf+0xd6>
     cda:	36 fc       	sbrc	r3, 6
     cdc:	81 c1       	rjmp	.+770    	; 0xfe0 <vfprintf+0x3ae>
     cde:	23 2d       	mov	r18, r3
     ce0:	20 64       	ori	r18, 0x40	; 64
     ce2:	32 2e       	mov	r3, r18
     ce4:	19 c0       	rjmp	.+50     	; 0xd18 <vfprintf+0xe6>
     ce6:	36 fe       	sbrs	r3, 6
     ce8:	06 c0       	rjmp	.+12     	; 0xcf6 <vfprintf+0xc4>
     cea:	8a e0       	ldi	r24, 0x0A	; 10
     cec:	98 9e       	mul	r9, r24
     cee:	20 0d       	add	r18, r0
     cf0:	11 24       	eor	r1, r1
     cf2:	92 2e       	mov	r9, r18
     cf4:	11 c0       	rjmp	.+34     	; 0xd18 <vfprintf+0xe6>
     cf6:	ea e0       	ldi	r30, 0x0A	; 10
     cf8:	2e 9e       	mul	r2, r30
     cfa:	20 0d       	add	r18, r0
     cfc:	11 24       	eor	r1, r1
     cfe:	22 2e       	mov	r2, r18
     d00:	f3 2d       	mov	r31, r3
     d02:	f0 62       	ori	r31, 0x20	; 32
     d04:	3f 2e       	mov	r3, r31
     d06:	08 c0       	rjmp	.+16     	; 0xd18 <vfprintf+0xe6>
     d08:	8c 36       	cpi	r24, 0x6C	; 108
     d0a:	21 f4       	brne	.+8      	; 0xd14 <vfprintf+0xe2>
     d0c:	83 2d       	mov	r24, r3
     d0e:	80 68       	ori	r24, 0x80	; 128
     d10:	38 2e       	mov	r3, r24
     d12:	02 c0       	rjmp	.+4      	; 0xd18 <vfprintf+0xe6>
     d14:	88 36       	cpi	r24, 0x68	; 104
     d16:	41 f4       	brne	.+16     	; 0xd28 <vfprintf+0xf6>
     d18:	f7 01       	movw	r30, r14
     d1a:	93 fd       	sbrc	r25, 3
     d1c:	85 91       	lpm	r24, Z+
     d1e:	93 ff       	sbrs	r25, 3
     d20:	81 91       	ld	r24, Z+
     d22:	7f 01       	movw	r14, r30
     d24:	81 11       	cpse	r24, r1
     d26:	b3 cf       	rjmp	.-154    	; 0xc8e <vfprintf+0x5c>
     d28:	98 2f       	mov	r25, r24
     d2a:	9f 7d       	andi	r25, 0xDF	; 223
     d2c:	95 54       	subi	r25, 0x45	; 69
     d2e:	93 30       	cpi	r25, 0x03	; 3
     d30:	28 f4       	brcc	.+10     	; 0xd3c <vfprintf+0x10a>
     d32:	0c 5f       	subi	r16, 0xFC	; 252
     d34:	1f 4f       	sbci	r17, 0xFF	; 255
     d36:	9f e3       	ldi	r25, 0x3F	; 63
     d38:	99 83       	std	Y+1, r25	; 0x01
     d3a:	0d c0       	rjmp	.+26     	; 0xd56 <vfprintf+0x124>
     d3c:	83 36       	cpi	r24, 0x63	; 99
     d3e:	31 f0       	breq	.+12     	; 0xd4c <vfprintf+0x11a>
     d40:	83 37       	cpi	r24, 0x73	; 115
     d42:	71 f0       	breq	.+28     	; 0xd60 <vfprintf+0x12e>
     d44:	83 35       	cpi	r24, 0x53	; 83
     d46:	09 f0       	breq	.+2      	; 0xd4a <vfprintf+0x118>
     d48:	59 c0       	rjmp	.+178    	; 0xdfc <vfprintf+0x1ca>
     d4a:	21 c0       	rjmp	.+66     	; 0xd8e <vfprintf+0x15c>
     d4c:	f8 01       	movw	r30, r16
     d4e:	80 81       	ld	r24, Z
     d50:	89 83       	std	Y+1, r24	; 0x01
     d52:	0e 5f       	subi	r16, 0xFE	; 254
     d54:	1f 4f       	sbci	r17, 0xFF	; 255
     d56:	88 24       	eor	r8, r8
     d58:	83 94       	inc	r8
     d5a:	91 2c       	mov	r9, r1
     d5c:	53 01       	movw	r10, r6
     d5e:	13 c0       	rjmp	.+38     	; 0xd86 <vfprintf+0x154>
     d60:	28 01       	movw	r4, r16
     d62:	f2 e0       	ldi	r31, 0x02	; 2
     d64:	4f 0e       	add	r4, r31
     d66:	51 1c       	adc	r5, r1
     d68:	f8 01       	movw	r30, r16
     d6a:	a0 80       	ld	r10, Z
     d6c:	b1 80       	ldd	r11, Z+1	; 0x01
     d6e:	36 fe       	sbrs	r3, 6
     d70:	03 c0       	rjmp	.+6      	; 0xd78 <vfprintf+0x146>
     d72:	69 2d       	mov	r22, r9
     d74:	70 e0       	ldi	r23, 0x00	; 0
     d76:	02 c0       	rjmp	.+4      	; 0xd7c <vfprintf+0x14a>
     d78:	6f ef       	ldi	r22, 0xFF	; 255
     d7a:	7f ef       	ldi	r23, 0xFF	; 255
     d7c:	c5 01       	movw	r24, r10
     d7e:	0e 94 49 09 	call	0x1292	; 0x1292 <strnlen>
     d82:	4c 01       	movw	r8, r24
     d84:	82 01       	movw	r16, r4
     d86:	f3 2d       	mov	r31, r3
     d88:	ff 77       	andi	r31, 0x7F	; 127
     d8a:	3f 2e       	mov	r3, r31
     d8c:	16 c0       	rjmp	.+44     	; 0xdba <vfprintf+0x188>
     d8e:	28 01       	movw	r4, r16
     d90:	22 e0       	ldi	r18, 0x02	; 2
     d92:	42 0e       	add	r4, r18
     d94:	51 1c       	adc	r5, r1
     d96:	f8 01       	movw	r30, r16
     d98:	a0 80       	ld	r10, Z
     d9a:	b1 80       	ldd	r11, Z+1	; 0x01
     d9c:	36 fe       	sbrs	r3, 6
     d9e:	03 c0       	rjmp	.+6      	; 0xda6 <vfprintf+0x174>
     da0:	69 2d       	mov	r22, r9
     da2:	70 e0       	ldi	r23, 0x00	; 0
     da4:	02 c0       	rjmp	.+4      	; 0xdaa <vfprintf+0x178>
     da6:	6f ef       	ldi	r22, 0xFF	; 255
     da8:	7f ef       	ldi	r23, 0xFF	; 255
     daa:	c5 01       	movw	r24, r10
     dac:	0e 94 37 09 	call	0x126e	; 0x126e <strnlen_P>
     db0:	4c 01       	movw	r8, r24
     db2:	f3 2d       	mov	r31, r3
     db4:	f0 68       	ori	r31, 0x80	; 128
     db6:	3f 2e       	mov	r3, r31
     db8:	82 01       	movw	r16, r4
     dba:	33 fc       	sbrc	r3, 3
     dbc:	1b c0       	rjmp	.+54     	; 0xdf4 <vfprintf+0x1c2>
     dbe:	82 2d       	mov	r24, r2
     dc0:	90 e0       	ldi	r25, 0x00	; 0
     dc2:	88 16       	cp	r8, r24
     dc4:	99 06       	cpc	r9, r25
     dc6:	b0 f4       	brcc	.+44     	; 0xdf4 <vfprintf+0x1c2>
     dc8:	b6 01       	movw	r22, r12
     dca:	80 e2       	ldi	r24, 0x20	; 32
     dcc:	90 e0       	ldi	r25, 0x00	; 0
     dce:	0e 94 54 09 	call	0x12a8	; 0x12a8 <fputc>
     dd2:	2a 94       	dec	r2
     dd4:	f4 cf       	rjmp	.-24     	; 0xdbe <vfprintf+0x18c>
     dd6:	f5 01       	movw	r30, r10
     dd8:	37 fc       	sbrc	r3, 7
     dda:	85 91       	lpm	r24, Z+
     ddc:	37 fe       	sbrs	r3, 7
     dde:	81 91       	ld	r24, Z+
     de0:	5f 01       	movw	r10, r30
     de2:	b6 01       	movw	r22, r12
     de4:	90 e0       	ldi	r25, 0x00	; 0
     de6:	0e 94 54 09 	call	0x12a8	; 0x12a8 <fputc>
     dea:	21 10       	cpse	r2, r1
     dec:	2a 94       	dec	r2
     dee:	21 e0       	ldi	r18, 0x01	; 1
     df0:	82 1a       	sub	r8, r18
     df2:	91 08       	sbc	r9, r1
     df4:	81 14       	cp	r8, r1
     df6:	91 04       	cpc	r9, r1
     df8:	71 f7       	brne	.-36     	; 0xdd6 <vfprintf+0x1a4>
     dfa:	e8 c0       	rjmp	.+464    	; 0xfcc <vfprintf+0x39a>
     dfc:	84 36       	cpi	r24, 0x64	; 100
     dfe:	11 f0       	breq	.+4      	; 0xe04 <vfprintf+0x1d2>
     e00:	89 36       	cpi	r24, 0x69	; 105
     e02:	41 f5       	brne	.+80     	; 0xe54 <vfprintf+0x222>
     e04:	f8 01       	movw	r30, r16
     e06:	37 fe       	sbrs	r3, 7
     e08:	07 c0       	rjmp	.+14     	; 0xe18 <vfprintf+0x1e6>
     e0a:	60 81       	ld	r22, Z
     e0c:	71 81       	ldd	r23, Z+1	; 0x01
     e0e:	82 81       	ldd	r24, Z+2	; 0x02
     e10:	93 81       	ldd	r25, Z+3	; 0x03
     e12:	0c 5f       	subi	r16, 0xFC	; 252
     e14:	1f 4f       	sbci	r17, 0xFF	; 255
     e16:	08 c0       	rjmp	.+16     	; 0xe28 <vfprintf+0x1f6>
     e18:	60 81       	ld	r22, Z
     e1a:	71 81       	ldd	r23, Z+1	; 0x01
     e1c:	07 2e       	mov	r0, r23
     e1e:	00 0c       	add	r0, r0
     e20:	88 0b       	sbc	r24, r24
     e22:	99 0b       	sbc	r25, r25
     e24:	0e 5f       	subi	r16, 0xFE	; 254
     e26:	1f 4f       	sbci	r17, 0xFF	; 255
     e28:	f3 2d       	mov	r31, r3
     e2a:	ff 76       	andi	r31, 0x6F	; 111
     e2c:	3f 2e       	mov	r3, r31
     e2e:	97 ff       	sbrs	r25, 7
     e30:	09 c0       	rjmp	.+18     	; 0xe44 <vfprintf+0x212>
     e32:	90 95       	com	r25
     e34:	80 95       	com	r24
     e36:	70 95       	com	r23
     e38:	61 95       	neg	r22
     e3a:	7f 4f       	sbci	r23, 0xFF	; 255
     e3c:	8f 4f       	sbci	r24, 0xFF	; 255
     e3e:	9f 4f       	sbci	r25, 0xFF	; 255
     e40:	f0 68       	ori	r31, 0x80	; 128
     e42:	3f 2e       	mov	r3, r31
     e44:	2a e0       	ldi	r18, 0x0A	; 10
     e46:	30 e0       	ldi	r19, 0x00	; 0
     e48:	a3 01       	movw	r20, r6
     e4a:	0e 94 90 09 	call	0x1320	; 0x1320 <__ultoa_invert>
     e4e:	88 2e       	mov	r8, r24
     e50:	86 18       	sub	r8, r6
     e52:	45 c0       	rjmp	.+138    	; 0xede <vfprintf+0x2ac>
     e54:	85 37       	cpi	r24, 0x75	; 117
     e56:	31 f4       	brne	.+12     	; 0xe64 <vfprintf+0x232>
     e58:	23 2d       	mov	r18, r3
     e5a:	2f 7e       	andi	r18, 0xEF	; 239
     e5c:	b2 2e       	mov	r11, r18
     e5e:	2a e0       	ldi	r18, 0x0A	; 10
     e60:	30 e0       	ldi	r19, 0x00	; 0
     e62:	25 c0       	rjmp	.+74     	; 0xeae <vfprintf+0x27c>
     e64:	93 2d       	mov	r25, r3
     e66:	99 7f       	andi	r25, 0xF9	; 249
     e68:	b9 2e       	mov	r11, r25
     e6a:	8f 36       	cpi	r24, 0x6F	; 111
     e6c:	c1 f0       	breq	.+48     	; 0xe9e <vfprintf+0x26c>
     e6e:	18 f4       	brcc	.+6      	; 0xe76 <vfprintf+0x244>
     e70:	88 35       	cpi	r24, 0x58	; 88
     e72:	79 f0       	breq	.+30     	; 0xe92 <vfprintf+0x260>
     e74:	b5 c0       	rjmp	.+362    	; 0xfe0 <vfprintf+0x3ae>
     e76:	80 37       	cpi	r24, 0x70	; 112
     e78:	19 f0       	breq	.+6      	; 0xe80 <vfprintf+0x24e>
     e7a:	88 37       	cpi	r24, 0x78	; 120
     e7c:	21 f0       	breq	.+8      	; 0xe86 <vfprintf+0x254>
     e7e:	b0 c0       	rjmp	.+352    	; 0xfe0 <vfprintf+0x3ae>
     e80:	e9 2f       	mov	r30, r25
     e82:	e0 61       	ori	r30, 0x10	; 16
     e84:	be 2e       	mov	r11, r30
     e86:	b4 fe       	sbrs	r11, 4
     e88:	0d c0       	rjmp	.+26     	; 0xea4 <vfprintf+0x272>
     e8a:	fb 2d       	mov	r31, r11
     e8c:	f4 60       	ori	r31, 0x04	; 4
     e8e:	bf 2e       	mov	r11, r31
     e90:	09 c0       	rjmp	.+18     	; 0xea4 <vfprintf+0x272>
     e92:	34 fe       	sbrs	r3, 4
     e94:	0a c0       	rjmp	.+20     	; 0xeaa <vfprintf+0x278>
     e96:	29 2f       	mov	r18, r25
     e98:	26 60       	ori	r18, 0x06	; 6
     e9a:	b2 2e       	mov	r11, r18
     e9c:	06 c0       	rjmp	.+12     	; 0xeaa <vfprintf+0x278>
     e9e:	28 e0       	ldi	r18, 0x08	; 8
     ea0:	30 e0       	ldi	r19, 0x00	; 0
     ea2:	05 c0       	rjmp	.+10     	; 0xeae <vfprintf+0x27c>
     ea4:	20 e1       	ldi	r18, 0x10	; 16
     ea6:	30 e0       	ldi	r19, 0x00	; 0
     ea8:	02 c0       	rjmp	.+4      	; 0xeae <vfprintf+0x27c>
     eaa:	20 e1       	ldi	r18, 0x10	; 16
     eac:	32 e0       	ldi	r19, 0x02	; 2
     eae:	f8 01       	movw	r30, r16
     eb0:	b7 fe       	sbrs	r11, 7
     eb2:	07 c0       	rjmp	.+14     	; 0xec2 <vfprintf+0x290>
     eb4:	60 81       	ld	r22, Z
     eb6:	71 81       	ldd	r23, Z+1	; 0x01
     eb8:	82 81       	ldd	r24, Z+2	; 0x02
     eba:	93 81       	ldd	r25, Z+3	; 0x03
     ebc:	0c 5f       	subi	r16, 0xFC	; 252
     ebe:	1f 4f       	sbci	r17, 0xFF	; 255
     ec0:	06 c0       	rjmp	.+12     	; 0xece <vfprintf+0x29c>
     ec2:	60 81       	ld	r22, Z
     ec4:	71 81       	ldd	r23, Z+1	; 0x01
     ec6:	80 e0       	ldi	r24, 0x00	; 0
     ec8:	90 e0       	ldi	r25, 0x00	; 0
     eca:	0e 5f       	subi	r16, 0xFE	; 254
     ecc:	1f 4f       	sbci	r17, 0xFF	; 255
     ece:	a3 01       	movw	r20, r6
     ed0:	0e 94 90 09 	call	0x1320	; 0x1320 <__ultoa_invert>
     ed4:	88 2e       	mov	r8, r24
     ed6:	86 18       	sub	r8, r6
     ed8:	fb 2d       	mov	r31, r11
     eda:	ff 77       	andi	r31, 0x7F	; 127
     edc:	3f 2e       	mov	r3, r31
     ede:	36 fe       	sbrs	r3, 6
     ee0:	0d c0       	rjmp	.+26     	; 0xefc <vfprintf+0x2ca>
     ee2:	23 2d       	mov	r18, r3
     ee4:	2e 7f       	andi	r18, 0xFE	; 254
     ee6:	a2 2e       	mov	r10, r18
     ee8:	89 14       	cp	r8, r9
     eea:	58 f4       	brcc	.+22     	; 0xf02 <vfprintf+0x2d0>
     eec:	34 fe       	sbrs	r3, 4
     eee:	0b c0       	rjmp	.+22     	; 0xf06 <vfprintf+0x2d4>
     ef0:	32 fc       	sbrc	r3, 2
     ef2:	09 c0       	rjmp	.+18     	; 0xf06 <vfprintf+0x2d4>
     ef4:	83 2d       	mov	r24, r3
     ef6:	8e 7e       	andi	r24, 0xEE	; 238
     ef8:	a8 2e       	mov	r10, r24
     efa:	05 c0       	rjmp	.+10     	; 0xf06 <vfprintf+0x2d4>
     efc:	b8 2c       	mov	r11, r8
     efe:	a3 2c       	mov	r10, r3
     f00:	03 c0       	rjmp	.+6      	; 0xf08 <vfprintf+0x2d6>
     f02:	b8 2c       	mov	r11, r8
     f04:	01 c0       	rjmp	.+2      	; 0xf08 <vfprintf+0x2d6>
     f06:	b9 2c       	mov	r11, r9
     f08:	a4 fe       	sbrs	r10, 4
     f0a:	0f c0       	rjmp	.+30     	; 0xf2a <vfprintf+0x2f8>
     f0c:	fe 01       	movw	r30, r28
     f0e:	e8 0d       	add	r30, r8
     f10:	f1 1d       	adc	r31, r1
     f12:	80 81       	ld	r24, Z
     f14:	80 33       	cpi	r24, 0x30	; 48
     f16:	21 f4       	brne	.+8      	; 0xf20 <vfprintf+0x2ee>
     f18:	9a 2d       	mov	r25, r10
     f1a:	99 7e       	andi	r25, 0xE9	; 233
     f1c:	a9 2e       	mov	r10, r25
     f1e:	09 c0       	rjmp	.+18     	; 0xf32 <vfprintf+0x300>
     f20:	a2 fe       	sbrs	r10, 2
     f22:	06 c0       	rjmp	.+12     	; 0xf30 <vfprintf+0x2fe>
     f24:	b3 94       	inc	r11
     f26:	b3 94       	inc	r11
     f28:	04 c0       	rjmp	.+8      	; 0xf32 <vfprintf+0x300>
     f2a:	8a 2d       	mov	r24, r10
     f2c:	86 78       	andi	r24, 0x86	; 134
     f2e:	09 f0       	breq	.+2      	; 0xf32 <vfprintf+0x300>
     f30:	b3 94       	inc	r11
     f32:	a3 fc       	sbrc	r10, 3
     f34:	11 c0       	rjmp	.+34     	; 0xf58 <vfprintf+0x326>
     f36:	a0 fe       	sbrs	r10, 0
     f38:	06 c0       	rjmp	.+12     	; 0xf46 <vfprintf+0x314>
     f3a:	b2 14       	cp	r11, r2
     f3c:	88 f4       	brcc	.+34     	; 0xf60 <vfprintf+0x32e>
     f3e:	28 0c       	add	r2, r8
     f40:	92 2c       	mov	r9, r2
     f42:	9b 18       	sub	r9, r11
     f44:	0e c0       	rjmp	.+28     	; 0xf62 <vfprintf+0x330>
     f46:	b2 14       	cp	r11, r2
     f48:	60 f4       	brcc	.+24     	; 0xf62 <vfprintf+0x330>
     f4a:	b6 01       	movw	r22, r12
     f4c:	80 e2       	ldi	r24, 0x20	; 32
     f4e:	90 e0       	ldi	r25, 0x00	; 0
     f50:	0e 94 54 09 	call	0x12a8	; 0x12a8 <fputc>
     f54:	b3 94       	inc	r11
     f56:	f7 cf       	rjmp	.-18     	; 0xf46 <vfprintf+0x314>
     f58:	b2 14       	cp	r11, r2
     f5a:	18 f4       	brcc	.+6      	; 0xf62 <vfprintf+0x330>
     f5c:	2b 18       	sub	r2, r11
     f5e:	02 c0       	rjmp	.+4      	; 0xf64 <vfprintf+0x332>
     f60:	98 2c       	mov	r9, r8
     f62:	21 2c       	mov	r2, r1
     f64:	a4 fe       	sbrs	r10, 4
     f66:	10 c0       	rjmp	.+32     	; 0xf88 <vfprintf+0x356>
     f68:	b6 01       	movw	r22, r12
     f6a:	80 e3       	ldi	r24, 0x30	; 48
     f6c:	90 e0       	ldi	r25, 0x00	; 0
     f6e:	0e 94 54 09 	call	0x12a8	; 0x12a8 <fputc>
     f72:	a2 fe       	sbrs	r10, 2
     f74:	17 c0       	rjmp	.+46     	; 0xfa4 <vfprintf+0x372>
     f76:	a1 fc       	sbrc	r10, 1
     f78:	03 c0       	rjmp	.+6      	; 0xf80 <vfprintf+0x34e>
     f7a:	88 e7       	ldi	r24, 0x78	; 120
     f7c:	90 e0       	ldi	r25, 0x00	; 0
     f7e:	02 c0       	rjmp	.+4      	; 0xf84 <vfprintf+0x352>
     f80:	88 e5       	ldi	r24, 0x58	; 88
     f82:	90 e0       	ldi	r25, 0x00	; 0
     f84:	b6 01       	movw	r22, r12
     f86:	0c c0       	rjmp	.+24     	; 0xfa0 <vfprintf+0x36e>
     f88:	8a 2d       	mov	r24, r10
     f8a:	86 78       	andi	r24, 0x86	; 134
     f8c:	59 f0       	breq	.+22     	; 0xfa4 <vfprintf+0x372>
     f8e:	a1 fe       	sbrs	r10, 1
     f90:	02 c0       	rjmp	.+4      	; 0xf96 <vfprintf+0x364>
     f92:	8b e2       	ldi	r24, 0x2B	; 43
     f94:	01 c0       	rjmp	.+2      	; 0xf98 <vfprintf+0x366>
     f96:	80 e2       	ldi	r24, 0x20	; 32
     f98:	a7 fc       	sbrc	r10, 7
     f9a:	8d e2       	ldi	r24, 0x2D	; 45
     f9c:	b6 01       	movw	r22, r12
     f9e:	90 e0       	ldi	r25, 0x00	; 0
     fa0:	0e 94 54 09 	call	0x12a8	; 0x12a8 <fputc>
     fa4:	89 14       	cp	r8, r9
     fa6:	38 f4       	brcc	.+14     	; 0xfb6 <vfprintf+0x384>
     fa8:	b6 01       	movw	r22, r12
     faa:	80 e3       	ldi	r24, 0x30	; 48
     fac:	90 e0       	ldi	r25, 0x00	; 0
     fae:	0e 94 54 09 	call	0x12a8	; 0x12a8 <fputc>
     fb2:	9a 94       	dec	r9
     fb4:	f7 cf       	rjmp	.-18     	; 0xfa4 <vfprintf+0x372>
     fb6:	8a 94       	dec	r8
     fb8:	f3 01       	movw	r30, r6
     fba:	e8 0d       	add	r30, r8
     fbc:	f1 1d       	adc	r31, r1
     fbe:	80 81       	ld	r24, Z
     fc0:	b6 01       	movw	r22, r12
     fc2:	90 e0       	ldi	r25, 0x00	; 0
     fc4:	0e 94 54 09 	call	0x12a8	; 0x12a8 <fputc>
     fc8:	81 10       	cpse	r8, r1
     fca:	f5 cf       	rjmp	.-22     	; 0xfb6 <vfprintf+0x384>
     fcc:	22 20       	and	r2, r2
     fce:	09 f4       	brne	.+2      	; 0xfd2 <vfprintf+0x3a0>
     fd0:	42 ce       	rjmp	.-892    	; 0xc56 <vfprintf+0x24>
     fd2:	b6 01       	movw	r22, r12
     fd4:	80 e2       	ldi	r24, 0x20	; 32
     fd6:	90 e0       	ldi	r25, 0x00	; 0
     fd8:	0e 94 54 09 	call	0x12a8	; 0x12a8 <fputc>
     fdc:	2a 94       	dec	r2
     fde:	f6 cf       	rjmp	.-20     	; 0xfcc <vfprintf+0x39a>
     fe0:	f6 01       	movw	r30, r12
     fe2:	86 81       	ldd	r24, Z+6	; 0x06
     fe4:	97 81       	ldd	r25, Z+7	; 0x07
     fe6:	02 c0       	rjmp	.+4      	; 0xfec <vfprintf+0x3ba>
     fe8:	8f ef       	ldi	r24, 0xFF	; 255
     fea:	9f ef       	ldi	r25, 0xFF	; 255
     fec:	2b 96       	adiw	r28, 0x0b	; 11
     fee:	e2 e1       	ldi	r30, 0x12	; 18
     ff0:	0c 94 0a 0a 	jmp	0x1414	; 0x1414 <__epilogue_restores__>

00000ff4 <calloc>:
     ff4:	0f 93       	push	r16
     ff6:	1f 93       	push	r17
     ff8:	cf 93       	push	r28
     ffa:	df 93       	push	r29
     ffc:	86 9f       	mul	r24, r22
     ffe:	80 01       	movw	r16, r0
    1000:	87 9f       	mul	r24, r23
    1002:	10 0d       	add	r17, r0
    1004:	96 9f       	mul	r25, r22
    1006:	10 0d       	add	r17, r0
    1008:	11 24       	eor	r1, r1
    100a:	c8 01       	movw	r24, r16
    100c:	0e 94 16 08 	call	0x102c	; 0x102c <malloc>
    1010:	ec 01       	movw	r28, r24
    1012:	00 97       	sbiw	r24, 0x00	; 0
    1014:	29 f0       	breq	.+10     	; 0x1020 <calloc+0x2c>
    1016:	a8 01       	movw	r20, r16
    1018:	60 e0       	ldi	r22, 0x00	; 0
    101a:	70 e0       	ldi	r23, 0x00	; 0
    101c:	0e 94 42 09 	call	0x1284	; 0x1284 <memset>
    1020:	ce 01       	movw	r24, r28
    1022:	df 91       	pop	r29
    1024:	cf 91       	pop	r28
    1026:	1f 91       	pop	r17
    1028:	0f 91       	pop	r16
    102a:	08 95       	ret

0000102c <malloc>:
    102c:	0f 93       	push	r16
    102e:	1f 93       	push	r17
    1030:	cf 93       	push	r28
    1032:	df 93       	push	r29
    1034:	82 30       	cpi	r24, 0x02	; 2
    1036:	91 05       	cpc	r25, r1
    1038:	10 f4       	brcc	.+4      	; 0x103e <malloc+0x12>
    103a:	82 e0       	ldi	r24, 0x02	; 2
    103c:	90 e0       	ldi	r25, 0x00	; 0
    103e:	e0 91 54 03 	lds	r30, 0x0354	; 0x800354 <__flp>
    1042:	f0 91 55 03 	lds	r31, 0x0355	; 0x800355 <__flp+0x1>
    1046:	20 e0       	ldi	r18, 0x00	; 0
    1048:	30 e0       	ldi	r19, 0x00	; 0
    104a:	a0 e0       	ldi	r26, 0x00	; 0
    104c:	b0 e0       	ldi	r27, 0x00	; 0
    104e:	30 97       	sbiw	r30, 0x00	; 0
    1050:	19 f1       	breq	.+70     	; 0x1098 <malloc+0x6c>
    1052:	40 81       	ld	r20, Z
    1054:	51 81       	ldd	r21, Z+1	; 0x01
    1056:	02 81       	ldd	r16, Z+2	; 0x02
    1058:	13 81       	ldd	r17, Z+3	; 0x03
    105a:	48 17       	cp	r20, r24
    105c:	59 07       	cpc	r21, r25
    105e:	c8 f0       	brcs	.+50     	; 0x1092 <malloc+0x66>
    1060:	84 17       	cp	r24, r20
    1062:	95 07       	cpc	r25, r21
    1064:	69 f4       	brne	.+26     	; 0x1080 <malloc+0x54>
    1066:	10 97       	sbiw	r26, 0x00	; 0
    1068:	31 f0       	breq	.+12     	; 0x1076 <malloc+0x4a>
    106a:	12 96       	adiw	r26, 0x02	; 2
    106c:	0c 93       	st	X, r16
    106e:	12 97       	sbiw	r26, 0x02	; 2
    1070:	13 96       	adiw	r26, 0x03	; 3
    1072:	1c 93       	st	X, r17
    1074:	27 c0       	rjmp	.+78     	; 0x10c4 <malloc+0x98>
    1076:	00 93 54 03 	sts	0x0354, r16	; 0x800354 <__flp>
    107a:	10 93 55 03 	sts	0x0355, r17	; 0x800355 <__flp+0x1>
    107e:	22 c0       	rjmp	.+68     	; 0x10c4 <malloc+0x98>
    1080:	21 15       	cp	r18, r1
    1082:	31 05       	cpc	r19, r1
    1084:	19 f0       	breq	.+6      	; 0x108c <malloc+0x60>
    1086:	42 17       	cp	r20, r18
    1088:	53 07       	cpc	r21, r19
    108a:	18 f4       	brcc	.+6      	; 0x1092 <malloc+0x66>
    108c:	9a 01       	movw	r18, r20
    108e:	bd 01       	movw	r22, r26
    1090:	ef 01       	movw	r28, r30
    1092:	df 01       	movw	r26, r30
    1094:	f8 01       	movw	r30, r16
    1096:	db cf       	rjmp	.-74     	; 0x104e <malloc+0x22>
    1098:	21 15       	cp	r18, r1
    109a:	31 05       	cpc	r19, r1
    109c:	f9 f0       	breq	.+62     	; 0x10dc <malloc+0xb0>
    109e:	28 1b       	sub	r18, r24
    10a0:	39 0b       	sbc	r19, r25
    10a2:	24 30       	cpi	r18, 0x04	; 4
    10a4:	31 05       	cpc	r19, r1
    10a6:	80 f4       	brcc	.+32     	; 0x10c8 <malloc+0x9c>
    10a8:	8a 81       	ldd	r24, Y+2	; 0x02
    10aa:	9b 81       	ldd	r25, Y+3	; 0x03
    10ac:	61 15       	cp	r22, r1
    10ae:	71 05       	cpc	r23, r1
    10b0:	21 f0       	breq	.+8      	; 0x10ba <malloc+0x8e>
    10b2:	fb 01       	movw	r30, r22
    10b4:	93 83       	std	Z+3, r25	; 0x03
    10b6:	82 83       	std	Z+2, r24	; 0x02
    10b8:	04 c0       	rjmp	.+8      	; 0x10c2 <malloc+0x96>
    10ba:	90 93 55 03 	sts	0x0355, r25	; 0x800355 <__flp+0x1>
    10be:	80 93 54 03 	sts	0x0354, r24	; 0x800354 <__flp>
    10c2:	fe 01       	movw	r30, r28
    10c4:	32 96       	adiw	r30, 0x02	; 2
    10c6:	44 c0       	rjmp	.+136    	; 0x1150 <malloc+0x124>
    10c8:	fe 01       	movw	r30, r28
    10ca:	e2 0f       	add	r30, r18
    10cc:	f3 1f       	adc	r31, r19
    10ce:	81 93       	st	Z+, r24
    10d0:	91 93       	st	Z+, r25
    10d2:	22 50       	subi	r18, 0x02	; 2
    10d4:	31 09       	sbc	r19, r1
    10d6:	39 83       	std	Y+1, r19	; 0x01
    10d8:	28 83       	st	Y, r18
    10da:	3a c0       	rjmp	.+116    	; 0x1150 <malloc+0x124>
    10dc:	20 91 52 03 	lds	r18, 0x0352	; 0x800352 <__brkval>
    10e0:	30 91 53 03 	lds	r19, 0x0353	; 0x800353 <__brkval+0x1>
    10e4:	23 2b       	or	r18, r19
    10e6:	41 f4       	brne	.+16     	; 0x10f8 <malloc+0xcc>
    10e8:	20 91 02 01 	lds	r18, 0x0102	; 0x800102 <__malloc_heap_start>
    10ec:	30 91 03 01 	lds	r19, 0x0103	; 0x800103 <__malloc_heap_start+0x1>
    10f0:	30 93 53 03 	sts	0x0353, r19	; 0x800353 <__brkval+0x1>
    10f4:	20 93 52 03 	sts	0x0352, r18	; 0x800352 <__brkval>
    10f8:	20 91 00 01 	lds	r18, 0x0100	; 0x800100 <__DATA_REGION_ORIGIN__>
    10fc:	30 91 01 01 	lds	r19, 0x0101	; 0x800101 <__DATA_REGION_ORIGIN__+0x1>
    1100:	21 15       	cp	r18, r1
    1102:	31 05       	cpc	r19, r1
    1104:	41 f4       	brne	.+16     	; 0x1116 <malloc+0xea>
    1106:	2d b7       	in	r18, 0x3d	; 61
    1108:	3e b7       	in	r19, 0x3e	; 62
    110a:	40 91 04 01 	lds	r20, 0x0104	; 0x800104 <__malloc_margin>
    110e:	50 91 05 01 	lds	r21, 0x0105	; 0x800105 <__malloc_margin+0x1>
    1112:	24 1b       	sub	r18, r20
    1114:	35 0b       	sbc	r19, r21
    1116:	e0 91 52 03 	lds	r30, 0x0352	; 0x800352 <__brkval>
    111a:	f0 91 53 03 	lds	r31, 0x0353	; 0x800353 <__brkval+0x1>
    111e:	e2 17       	cp	r30, r18
    1120:	f3 07       	cpc	r31, r19
    1122:	a0 f4       	brcc	.+40     	; 0x114c <malloc+0x120>
    1124:	2e 1b       	sub	r18, r30
    1126:	3f 0b       	sbc	r19, r31
    1128:	28 17       	cp	r18, r24
    112a:	39 07       	cpc	r19, r25
    112c:	78 f0       	brcs	.+30     	; 0x114c <malloc+0x120>
    112e:	ac 01       	movw	r20, r24
    1130:	4e 5f       	subi	r20, 0xFE	; 254
    1132:	5f 4f       	sbci	r21, 0xFF	; 255
    1134:	24 17       	cp	r18, r20
    1136:	35 07       	cpc	r19, r21
    1138:	48 f0       	brcs	.+18     	; 0x114c <malloc+0x120>
    113a:	4e 0f       	add	r20, r30
    113c:	5f 1f       	adc	r21, r31
    113e:	50 93 53 03 	sts	0x0353, r21	; 0x800353 <__brkval+0x1>
    1142:	40 93 52 03 	sts	0x0352, r20	; 0x800352 <__brkval>
    1146:	81 93       	st	Z+, r24
    1148:	91 93       	st	Z+, r25
    114a:	02 c0       	rjmp	.+4      	; 0x1150 <malloc+0x124>
    114c:	e0 e0       	ldi	r30, 0x00	; 0
    114e:	f0 e0       	ldi	r31, 0x00	; 0
    1150:	cf 01       	movw	r24, r30
    1152:	df 91       	pop	r29
    1154:	cf 91       	pop	r28
    1156:	1f 91       	pop	r17
    1158:	0f 91       	pop	r16
    115a:	08 95       	ret

0000115c <free>:
    115c:	cf 93       	push	r28
    115e:	df 93       	push	r29
    1160:	00 97       	sbiw	r24, 0x00	; 0
    1162:	09 f4       	brne	.+2      	; 0x1166 <free+0xa>
    1164:	81 c0       	rjmp	.+258    	; 0x1268 <free+0x10c>
    1166:	fc 01       	movw	r30, r24
    1168:	32 97       	sbiw	r30, 0x02	; 2
    116a:	13 82       	std	Z+3, r1	; 0x03
    116c:	12 82       	std	Z+2, r1	; 0x02
    116e:	a0 91 54 03 	lds	r26, 0x0354	; 0x800354 <__flp>
    1172:	b0 91 55 03 	lds	r27, 0x0355	; 0x800355 <__flp+0x1>
    1176:	10 97       	sbiw	r26, 0x00	; 0
    1178:	81 f4       	brne	.+32     	; 0x119a <free+0x3e>
    117a:	20 81       	ld	r18, Z
    117c:	31 81       	ldd	r19, Z+1	; 0x01
    117e:	82 0f       	add	r24, r18
    1180:	93 1f       	adc	r25, r19
    1182:	20 91 52 03 	lds	r18, 0x0352	; 0x800352 <__brkval>
    1186:	30 91 53 03 	lds	r19, 0x0353	; 0x800353 <__brkval+0x1>
    118a:	28 17       	cp	r18, r24
    118c:	39 07       	cpc	r19, r25
    118e:	51 f5       	brne	.+84     	; 0x11e4 <free+0x88>
    1190:	f0 93 53 03 	sts	0x0353, r31	; 0x800353 <__brkval+0x1>
    1194:	e0 93 52 03 	sts	0x0352, r30	; 0x800352 <__brkval>
    1198:	67 c0       	rjmp	.+206    	; 0x1268 <free+0x10c>
    119a:	ed 01       	movw	r28, r26
    119c:	20 e0       	ldi	r18, 0x00	; 0
    119e:	30 e0       	ldi	r19, 0x00	; 0
    11a0:	ce 17       	cp	r28, r30
    11a2:	df 07       	cpc	r29, r31
    11a4:	40 f4       	brcc	.+16     	; 0x11b6 <free+0x5a>
    11a6:	4a 81       	ldd	r20, Y+2	; 0x02
    11a8:	5b 81       	ldd	r21, Y+3	; 0x03
    11aa:	9e 01       	movw	r18, r28
    11ac:	41 15       	cp	r20, r1
    11ae:	51 05       	cpc	r21, r1
    11b0:	f1 f0       	breq	.+60     	; 0x11ee <free+0x92>
    11b2:	ea 01       	movw	r28, r20
    11b4:	f5 cf       	rjmp	.-22     	; 0x11a0 <free+0x44>
    11b6:	d3 83       	std	Z+3, r29	; 0x03
    11b8:	c2 83       	std	Z+2, r28	; 0x02
    11ba:	40 81       	ld	r20, Z
    11bc:	51 81       	ldd	r21, Z+1	; 0x01
    11be:	84 0f       	add	r24, r20
    11c0:	95 1f       	adc	r25, r21
    11c2:	c8 17       	cp	r28, r24
    11c4:	d9 07       	cpc	r29, r25
    11c6:	59 f4       	brne	.+22     	; 0x11de <free+0x82>
    11c8:	88 81       	ld	r24, Y
    11ca:	99 81       	ldd	r25, Y+1	; 0x01
    11cc:	84 0f       	add	r24, r20
    11ce:	95 1f       	adc	r25, r21
    11d0:	02 96       	adiw	r24, 0x02	; 2
    11d2:	91 83       	std	Z+1, r25	; 0x01
    11d4:	80 83       	st	Z, r24
    11d6:	8a 81       	ldd	r24, Y+2	; 0x02
    11d8:	9b 81       	ldd	r25, Y+3	; 0x03
    11da:	93 83       	std	Z+3, r25	; 0x03
    11dc:	82 83       	std	Z+2, r24	; 0x02
    11de:	21 15       	cp	r18, r1
    11e0:	31 05       	cpc	r19, r1
    11e2:	29 f4       	brne	.+10     	; 0x11ee <free+0x92>
    11e4:	f0 93 55 03 	sts	0x0355, r31	; 0x800355 <__flp+0x1>
    11e8:	e0 93 54 03 	sts	0x0354, r30	; 0x800354 <__flp>
    11ec:	3d c0       	rjmp	.+122    	; 0x1268 <free+0x10c>
    11ee:	e9 01       	movw	r28, r18
    11f0:	fb 83       	std	Y+3, r31	; 0x03
    11f2:	ea 83       	std	Y+2, r30	; 0x02
    11f4:	49 91       	ld	r20, Y+
    11f6:	59 91       	ld	r21, Y+
    11f8:	c4 0f       	add	r28, r20
    11fa:	d5 1f       	adc	r29, r21
    11fc:	ec 17       	cp	r30, r28
    11fe:	fd 07       	cpc	r31, r29
    1200:	61 f4       	brne	.+24     	; 0x121a <free+0xbe>
    1202:	80 81       	ld	r24, Z
    1204:	91 81       	ldd	r25, Z+1	; 0x01
    1206:	84 0f       	add	r24, r20
    1208:	95 1f       	adc	r25, r21
    120a:	02 96       	adiw	r24, 0x02	; 2
    120c:	e9 01       	movw	r28, r18
    120e:	99 83       	std	Y+1, r25	; 0x01
    1210:	88 83       	st	Y, r24
    1212:	82 81       	ldd	r24, Z+2	; 0x02
    1214:	93 81       	ldd	r25, Z+3	; 0x03
    1216:	9b 83       	std	Y+3, r25	; 0x03
    1218:	8a 83       	std	Y+2, r24	; 0x02
    121a:	e0 e0       	ldi	r30, 0x00	; 0
    121c:	f0 e0       	ldi	r31, 0x00	; 0
    121e:	12 96       	adiw	r26, 0x02	; 2
    1220:	8d 91       	ld	r24, X+
    1222:	9c 91       	ld	r25, X
    1224:	13 97       	sbiw	r26, 0x03	; 3
    1226:	00 97       	sbiw	r24, 0x00	; 0
    1228:	19 f0       	breq	.+6      	; 0x1230 <free+0xd4>
    122a:	fd 01       	movw	r30, r26
    122c:	dc 01       	movw	r26, r24
    122e:	f7 cf       	rjmp	.-18     	; 0x121e <free+0xc2>
    1230:	8d 91       	ld	r24, X+
    1232:	9c 91       	ld	r25, X
    1234:	11 97       	sbiw	r26, 0x01	; 1
    1236:	9d 01       	movw	r18, r26
    1238:	2e 5f       	subi	r18, 0xFE	; 254
    123a:	3f 4f       	sbci	r19, 0xFF	; 255
    123c:	82 0f       	add	r24, r18
    123e:	93 1f       	adc	r25, r19
    1240:	20 91 52 03 	lds	r18, 0x0352	; 0x800352 <__brkval>
    1244:	30 91 53 03 	lds	r19, 0x0353	; 0x800353 <__brkval+0x1>
    1248:	28 17       	cp	r18, r24
    124a:	39 07       	cpc	r19, r25
    124c:	69 f4       	brne	.+26     	; 0x1268 <free+0x10c>
    124e:	30 97       	sbiw	r30, 0x00	; 0
    1250:	29 f4       	brne	.+10     	; 0x125c <free+0x100>
    1252:	10 92 55 03 	sts	0x0355, r1	; 0x800355 <__flp+0x1>
    1256:	10 92 54 03 	sts	0x0354, r1	; 0x800354 <__flp>
    125a:	02 c0       	rjmp	.+4      	; 0x1260 <free+0x104>
    125c:	13 82       	std	Z+3, r1	; 0x03
    125e:	12 82       	std	Z+2, r1	; 0x02
    1260:	b0 93 53 03 	sts	0x0353, r27	; 0x800353 <__brkval+0x1>
    1264:	a0 93 52 03 	sts	0x0352, r26	; 0x800352 <__brkval>
    1268:	df 91       	pop	r29
    126a:	cf 91       	pop	r28
    126c:	08 95       	ret

0000126e <strnlen_P>:
    126e:	fc 01       	movw	r30, r24
    1270:	05 90       	lpm	r0, Z+
    1272:	61 50       	subi	r22, 0x01	; 1
    1274:	70 40       	sbci	r23, 0x00	; 0
    1276:	01 10       	cpse	r0, r1
    1278:	d8 f7       	brcc	.-10     	; 0x1270 <strnlen_P+0x2>
    127a:	80 95       	com	r24
    127c:	90 95       	com	r25
    127e:	8e 0f       	add	r24, r30
    1280:	9f 1f       	adc	r25, r31
    1282:	08 95       	ret

00001284 <memset>:
    1284:	dc 01       	movw	r26, r24
    1286:	01 c0       	rjmp	.+2      	; 0x128a <memset+0x6>
    1288:	6d 93       	st	X+, r22
    128a:	41 50       	subi	r20, 0x01	; 1
    128c:	50 40       	sbci	r21, 0x00	; 0
    128e:	e0 f7       	brcc	.-8      	; 0x1288 <memset+0x4>
    1290:	08 95       	ret

00001292 <strnlen>:
    1292:	fc 01       	movw	r30, r24
    1294:	61 50       	subi	r22, 0x01	; 1
    1296:	70 40       	sbci	r23, 0x00	; 0
    1298:	01 90       	ld	r0, Z+
    129a:	01 10       	cpse	r0, r1
    129c:	d8 f7       	brcc	.-10     	; 0x1294 <strnlen+0x2>
    129e:	80 95       	com	r24
    12a0:	90 95       	com	r25
    12a2:	8e 0f       	add	r24, r30
    12a4:	9f 1f       	adc	r25, r31
    12a6:	08 95       	ret

000012a8 <fputc>:
    12a8:	0f 93       	push	r16
    12aa:	1f 93       	push	r17
    12ac:	cf 93       	push	r28
    12ae:	df 93       	push	r29
    12b0:	fb 01       	movw	r30, r22
    12b2:	23 81       	ldd	r18, Z+3	; 0x03
    12b4:	21 fd       	sbrc	r18, 1
    12b6:	03 c0       	rjmp	.+6      	; 0x12be <fputc+0x16>
    12b8:	8f ef       	ldi	r24, 0xFF	; 255
    12ba:	9f ef       	ldi	r25, 0xFF	; 255
    12bc:	2c c0       	rjmp	.+88     	; 0x1316 <fputc+0x6e>
    12be:	22 ff       	sbrs	r18, 2
    12c0:	16 c0       	rjmp	.+44     	; 0x12ee <fputc+0x46>
    12c2:	46 81       	ldd	r20, Z+6	; 0x06
    12c4:	57 81       	ldd	r21, Z+7	; 0x07
    12c6:	24 81       	ldd	r18, Z+4	; 0x04
    12c8:	35 81       	ldd	r19, Z+5	; 0x05
    12ca:	42 17       	cp	r20, r18
    12cc:	53 07       	cpc	r21, r19
    12ce:	44 f4       	brge	.+16     	; 0x12e0 <fputc+0x38>
    12d0:	a0 81       	ld	r26, Z
    12d2:	b1 81       	ldd	r27, Z+1	; 0x01
    12d4:	9d 01       	movw	r18, r26
    12d6:	2f 5f       	subi	r18, 0xFF	; 255
    12d8:	3f 4f       	sbci	r19, 0xFF	; 255
    12da:	31 83       	std	Z+1, r19	; 0x01
    12dc:	20 83       	st	Z, r18
    12de:	8c 93       	st	X, r24
    12e0:	26 81       	ldd	r18, Z+6	; 0x06
    12e2:	37 81       	ldd	r19, Z+7	; 0x07
    12e4:	2f 5f       	subi	r18, 0xFF	; 255
    12e6:	3f 4f       	sbci	r19, 0xFF	; 255
    12e8:	37 83       	std	Z+7, r19	; 0x07
    12ea:	26 83       	std	Z+6, r18	; 0x06
    12ec:	14 c0       	rjmp	.+40     	; 0x1316 <fputc+0x6e>
    12ee:	8b 01       	movw	r16, r22
    12f0:	ec 01       	movw	r28, r24
    12f2:	fb 01       	movw	r30, r22
    12f4:	00 84       	ldd	r0, Z+8	; 0x08
    12f6:	f1 85       	ldd	r31, Z+9	; 0x09
    12f8:	e0 2d       	mov	r30, r0
    12fa:	09 95       	icall
    12fc:	89 2b       	or	r24, r25
    12fe:	e1 f6       	brne	.-72     	; 0x12b8 <fputc+0x10>
    1300:	d8 01       	movw	r26, r16
    1302:	16 96       	adiw	r26, 0x06	; 6
    1304:	8d 91       	ld	r24, X+
    1306:	9c 91       	ld	r25, X
    1308:	17 97       	sbiw	r26, 0x07	; 7
    130a:	01 96       	adiw	r24, 0x01	; 1
    130c:	17 96       	adiw	r26, 0x07	; 7
    130e:	9c 93       	st	X, r25
    1310:	8e 93       	st	-X, r24
    1312:	16 97       	sbiw	r26, 0x06	; 6
    1314:	ce 01       	movw	r24, r28
    1316:	df 91       	pop	r29
    1318:	cf 91       	pop	r28
    131a:	1f 91       	pop	r17
    131c:	0f 91       	pop	r16
    131e:	08 95       	ret

00001320 <__ultoa_invert>:
    1320:	fa 01       	movw	r30, r20
    1322:	aa 27       	eor	r26, r26
    1324:	28 30       	cpi	r18, 0x08	; 8
    1326:	51 f1       	breq	.+84     	; 0x137c <__ultoa_invert+0x5c>
    1328:	20 31       	cpi	r18, 0x10	; 16
    132a:	81 f1       	breq	.+96     	; 0x138c <__ultoa_invert+0x6c>
    132c:	e8 94       	clt
    132e:	6f 93       	push	r22
    1330:	6e 7f       	andi	r22, 0xFE	; 254
    1332:	6e 5f       	subi	r22, 0xFE	; 254
    1334:	7f 4f       	sbci	r23, 0xFF	; 255
    1336:	8f 4f       	sbci	r24, 0xFF	; 255
    1338:	9f 4f       	sbci	r25, 0xFF	; 255
    133a:	af 4f       	sbci	r26, 0xFF	; 255
    133c:	b1 e0       	ldi	r27, 0x01	; 1
    133e:	3e d0       	rcall	.+124    	; 0x13bc <__ultoa_invert+0x9c>
    1340:	b4 e0       	ldi	r27, 0x04	; 4
    1342:	3c d0       	rcall	.+120    	; 0x13bc <__ultoa_invert+0x9c>
    1344:	67 0f       	add	r22, r23
    1346:	78 1f       	adc	r23, r24
    1348:	89 1f       	adc	r24, r25
    134a:	9a 1f       	adc	r25, r26
    134c:	a1 1d       	adc	r26, r1
    134e:	68 0f       	add	r22, r24
    1350:	79 1f       	adc	r23, r25
    1352:	8a 1f       	adc	r24, r26
    1354:	91 1d       	adc	r25, r1
    1356:	a1 1d       	adc	r26, r1
    1358:	6a 0f       	add	r22, r26
    135a:	71 1d       	adc	r23, r1
    135c:	81 1d       	adc	r24, r1
    135e:	91 1d       	adc	r25, r1
    1360:	a1 1d       	adc	r26, r1
    1362:	20 d0       	rcall	.+64     	; 0x13a4 <__ultoa_invert+0x84>
    1364:	09 f4       	brne	.+2      	; 0x1368 <__ultoa_invert+0x48>
    1366:	68 94       	set
    1368:	3f 91       	pop	r19
    136a:	2a e0       	ldi	r18, 0x0A	; 10
    136c:	26 9f       	mul	r18, r22
    136e:	11 24       	eor	r1, r1
    1370:	30 19       	sub	r19, r0
    1372:	30 5d       	subi	r19, 0xD0	; 208
    1374:	31 93       	st	Z+, r19
    1376:	de f6       	brtc	.-74     	; 0x132e <__ultoa_invert+0xe>
    1378:	cf 01       	movw	r24, r30
    137a:	08 95       	ret
    137c:	46 2f       	mov	r20, r22
    137e:	47 70       	andi	r20, 0x07	; 7
    1380:	40 5d       	subi	r20, 0xD0	; 208
    1382:	41 93       	st	Z+, r20
    1384:	b3 e0       	ldi	r27, 0x03	; 3
    1386:	0f d0       	rcall	.+30     	; 0x13a6 <__ultoa_invert+0x86>
    1388:	c9 f7       	brne	.-14     	; 0x137c <__ultoa_invert+0x5c>
    138a:	f6 cf       	rjmp	.-20     	; 0x1378 <__ultoa_invert+0x58>
    138c:	46 2f       	mov	r20, r22
    138e:	4f 70       	andi	r20, 0x0F	; 15
    1390:	40 5d       	subi	r20, 0xD0	; 208
    1392:	4a 33       	cpi	r20, 0x3A	; 58
    1394:	18 f0       	brcs	.+6      	; 0x139c <__ultoa_invert+0x7c>
    1396:	49 5d       	subi	r20, 0xD9	; 217
    1398:	31 fd       	sbrc	r19, 1
    139a:	40 52       	subi	r20, 0x20	; 32
    139c:	41 93       	st	Z+, r20
    139e:	02 d0       	rcall	.+4      	; 0x13a4 <__ultoa_invert+0x84>
    13a0:	a9 f7       	brne	.-22     	; 0x138c <__ultoa_invert+0x6c>
    13a2:	ea cf       	rjmp	.-44     	; 0x1378 <__ultoa_invert+0x58>
    13a4:	b4 e0       	ldi	r27, 0x04	; 4
    13a6:	a6 95       	lsr	r26
    13a8:	97 95       	ror	r25
    13aa:	87 95       	ror	r24
    13ac:	77 95       	ror	r23
    13ae:	67 95       	ror	r22
    13b0:	ba 95       	dec	r27
    13b2:	c9 f7       	brne	.-14     	; 0x13a6 <__ultoa_invert+0x86>
    13b4:	00 97       	sbiw	r24, 0x00	; 0
    13b6:	61 05       	cpc	r22, r1
    13b8:	71 05       	cpc	r23, r1
    13ba:	08 95       	ret
    13bc:	9b 01       	movw	r18, r22
    13be:	ac 01       	movw	r20, r24
    13c0:	0a 2e       	mov	r0, r26
    13c2:	06 94       	lsr	r0
    13c4:	57 95       	ror	r21
    13c6:	47 95       	ror	r20
    13c8:	37 95       	ror	r19
    13ca:	27 95       	ror	r18
    13cc:	ba 95       	dec	r27
    13ce:	c9 f7       	brne	.-14     	; 0x13c2 <__ultoa_invert+0xa2>
    13d0:	62 0f       	add	r22, r18
    13d2:	73 1f       	adc	r23, r19
    13d4:	84 1f       	adc	r24, r20
    13d6:	95 1f       	adc	r25, r21
    13d8:	a0 1d       	adc	r26, r0
    13da:	08 95       	ret

000013dc <__prologue_saves__>:
    13dc:	2f 92       	push	r2
    13de:	3f 92       	push	r3
    13e0:	4f 92       	push	r4
    13e2:	5f 92       	push	r5
    13e4:	6f 92       	push	r6
    13e6:	7f 92       	push	r7
    13e8:	8f 92       	push	r8
    13ea:	9f 92       	push	r9
    13ec:	af 92       	push	r10
    13ee:	bf 92       	push	r11
    13f0:	cf 92       	push	r12
    13f2:	df 92       	push	r13
    13f4:	ef 92       	push	r14
    13f6:	ff 92       	push	r15
    13f8:	0f 93       	push	r16
    13fa:	1f 93       	push	r17
    13fc:	cf 93       	push	r28
    13fe:	df 93       	push	r29
    1400:	cd b7       	in	r28, 0x3d	; 61
    1402:	de b7       	in	r29, 0x3e	; 62
    1404:	ca 1b       	sub	r28, r26
    1406:	db 0b       	sbc	r29, r27
    1408:	0f b6       	in	r0, 0x3f	; 63
    140a:	f8 94       	cli
    140c:	de bf       	out	0x3e, r29	; 62
    140e:	0f be       	out	0x3f, r0	; 63
    1410:	cd bf       	out	0x3d, r28	; 61
    1412:	09 94       	ijmp

00001414 <__epilogue_restores__>:
    1414:	2a 88       	ldd	r2, Y+18	; 0x12
    1416:	39 88       	ldd	r3, Y+17	; 0x11
    1418:	48 88       	ldd	r4, Y+16	; 0x10
    141a:	5f 84       	ldd	r5, Y+15	; 0x0f
    141c:	6e 84       	ldd	r6, Y+14	; 0x0e
    141e:	7d 84       	ldd	r7, Y+13	; 0x0d
    1420:	8c 84       	ldd	r8, Y+12	; 0x0c
    1422:	9b 84       	ldd	r9, Y+11	; 0x0b
    1424:	aa 84       	ldd	r10, Y+10	; 0x0a
    1426:	b9 84       	ldd	r11, Y+9	; 0x09
    1428:	c8 84       	ldd	r12, Y+8	; 0x08
    142a:	df 80       	ldd	r13, Y+7	; 0x07
    142c:	ee 80       	ldd	r14, Y+6	; 0x06
    142e:	fd 80       	ldd	r15, Y+5	; 0x05
    1430:	0c 81       	ldd	r16, Y+4	; 0x04
    1432:	1b 81       	ldd	r17, Y+3	; 0x03
    1434:	aa 81       	ldd	r26, Y+2	; 0x02
    1436:	b9 81       	ldd	r27, Y+1	; 0x01
    1438:	ce 0f       	add	r28, r30
    143a:	d1 1d       	adc	r29, r1
    143c:	0f b6       	in	r0, 0x3f	; 63
    143e:	f8 94       	cli
    1440:	de bf       	out	0x3e, r29	; 62
    1442:	0f be       	out	0x3f, r0	; 63
    1444:	cd bf       	out	0x3d, r28	; 61
    1446:	ed 01       	movw	r28, r26
    1448:	08 95       	ret

0000144a <_exit>:
    144a:	f8 94       	cli

0000144c <__stop_program>:
    144c:	ff cf       	rjmp	.-2      	; 0x144c <__stop_program>
